(dp0
S'#701-800'
p1
S'http://boxofficemojo.comhttp://boxofficemojo.com/genres/chart/?view=main&sort=gross&order=DESC&pagenum=8&id=documentary.htm'
p2
sS'#601-700'
p3
S'http://boxofficemojo.comhttp://boxofficemojo.com/genres/chart/?view=main&sort=gross&order=DESC&pagenum=7&id=documentary.htm'
p4
sS'#1201-1296'
p5
S'http://boxofficemojo.comhttp://boxofficemojo.com/genres/chart/?view=main&sort=gross&order=DESC&pagenum=13&id=documentary.htm'
p6
sS'#101-200'
p7
S'http://boxofficemojo.comhttp://boxofficemojo.com/genres/chart/?view=main&sort=gross&order=DESC&pagenum=2&id=documentary.htm'
p8
sS'#901-1000'
p9
S'http://boxofficemojo.comhttp://boxofficemojo.com/genres/chart/?view=main&sort=gross&order=DESC&pagenum=10&id=documentary.htm'
p10
sS'#401-500'
p11
S'http://boxofficemojo.comhttp://boxofficemojo.com/genres/chart/?view=main&sort=gross&order=DESC&pagenum=5&id=documentary.htm'
p12
sS'#501-600'
p13
S'http://boxofficemojo.comhttp://boxofficemojo.com/genres/chart/?view=main&sort=gross&order=DESC&pagenum=6&id=documentary.htm'
p14
sS'#1001-1100'
p15
S'http://boxofficemojo.comhttp://boxofficemojo.com/genres/chart/?view=main&sort=gross&order=DESC&pagenum=11&id=documentary.htm'
p16
sS'#801-900'
p17
S'http://boxofficemojo.comhttp://boxofficemojo.com/genres/chart/?view=main&sort=gross&order=DESC&pagenum=9&id=documentary.htm'
p18
sS'#301-400'
p19
S'http://boxofficemojo.comhttp://boxofficemojo.com/genres/chart/?view=main&sort=gross&order=DESC&pagenum=4&id=documentary.htm'
p20
sS'#201-300'
p21
S'http://boxofficemojo.comhttp://boxofficemojo.com/genres/chart/?view=main&sort=gross&order=DESC&pagenum=3&id=documentary.htm'
p22
sS'#1101-1200'
p23
S'http://boxofficemojo.comhttp://boxofficemojo.com/genres/chart/?view=main&sort=gross&order=DESC&pagenum=12&id=documentary.htm'
p24
sS'first'
p25
S'http://boxofficemojo.com/genres/chart/?id=documentary.htm'
p26
s.