ccopy_reg
_reconstructor
p0
(cpandas.core.frame
DataFrame
p1
c__builtin__
object
p2
Ntp3
Rp4
g0
(cpandas.core.internals
BlockManager
p5
g2
Ntp6
Rp7
((lp8
cpandas.core.index
_new_Index
p9
(cpandas.core.index
Index
p10
(dp11
S'data'
p12
cnumpy.core.multiarray
_reconstruct
p13
(cnumpy
ndarray
p14
(I0
tp15
S'b'
p16
tp17
Rp18
(I1
(I7
tp19
cnumpy
dtype
p20
(S'O8'
p21
I0
I1
tp22
Rp23
(I3
S'|'
p24
NNNI-1
I-1
I63
tp25
bI00
(lp26
S'Rank'
p27
aS'Studio'
p28
aS'TotalGross'
p29
aS'TotalTheaters'
p30
aS'OpenGross'
p31
aS'OpenTheatres'
p32
aS'RelDate'
p33
atp34
bsS'name'
p35
Nstp36
Rp37
ag9
(g10
(dp38
g12
g13
(g14
(I0
tp39
g16
tp40
Rp41
(I1
(I1183
tp42
g23
I00
(lp43
S'Liv & Ingmar'
p44
aS'Abduction: The Megumi Yokota Story'
p45
aS'Pete Seeger: The Power of Song'
p46
aS'Operation Filmmaker'
p47
aS'Jig'
p48
aS'The Great Flood'
p49
aS'One Peace at a Time'
p50
aS'Up the Yangtze'
p51
aS'8: The Mormon Proposition'
p52
aS'Not Quite Hollywood'
p53
aS'Trekkies'
p54
aS'Crossing the Bridge: The Sound of Istanbul'
p55
aS'Peter Brook: The Tightrope'
p56
aS'Ram Dass: Fierce Grace'
p57
aS'Dear Zachary: A Letter to a Son About His Father'
p58
aS'Be Here to Love Me: A Film About Townes Van Zandt'
p59
aS'Twist of Faith'
p60
aS'Festival Express'
p61
aS'Leviathan (2013)'
p62
aS'Aileen: The Life and Death of a Serial Killer'
p63
aS'Hellbound?'
p64
aS'The Arbor'
p65
aS'African Cats'
p66
aS'American Teacher'
p67
aS'Moog'
p68
aS'Pianomania'
p69
aS'Building Hope'
p70
aS'The Short Game'
p71
aS'Yves St. Laurent'
p72
aS'Maidan'
p73
aS'After Innocence'
p74
aS'Wetlands Preserved'
p75
aS'Orwell Rolls in His Grave'
p76
aS'Bigger, Stronger, Faster*'
p77
aS'The Big Question'
p78
aS'Run for Your Life'
p79
aS'El Sicario, Room 164'
p80
aS'Believe'
p81
aS"Pandora's Promise"
p82
aS'Charlotte Rampling: The Look'
p83
aS'American Mustang'
p84
aS'Throw Down Your Heart'
p85
aS'Touching the Void'
p86
aS'Enemies of the People'
p87
aS'Fahrenheit 9/11'
p88
aS'Stories We Tell'
p89
aS'Crazy Horse'
p90
aS'Death Metal Angola'
p91
aS'My Voyage to Italy'
p92
aS'Beyond the Gates (2004)'
p93
aS"Good Ol' Freda"
p94
aS'Rivers and Tides'
p95
aS'No Restraint'
p96
aS'Stranded: I Have Come from a Plane That Crashed on the Mountains'
p97
aS'Blessed Is the Match: The Life and Times of Hannah Senesh'
p98
aS'Taxi to the Dark Side'
p99
aS'Happy Valley'
p100
aS'Unborn in the USA'
p101
aS'Grizzly Man'
p102
aS'Billabong Odyssey'
p103
aS'Sketches of Frank Gehry'
p104
aS'A State of Mind'
p105
aS'Ayn Rand: A Sense of Life'
p106
aS'The Kids Grow Up'
p107
aS'The United States of Autism'
p108
aS'Rank'
p109
aS'The Singing Revolution'
p110
aS'Beats, Rhymes & Life: The Travels of a Tribe Called Quest'
p111
aS'The Harvest/La Cosecha'
p112
aS'Burma VJ'
p113
aS'Naked in Ashes'
p114
aS'Favela Rising'
p115
aS'This is Not a Film'
p116
aS'Who the #$&% Is Jackson Pollock'
p117
aS"Tosca's Kiss (2014 re-release)"
p118
aS'Bra Boys'
p119
aS'The Story of the Weeping Camel'
p120
aS'The Long Way Home'
p121
aS'If I Die Tonight'
p122
aS'Baraka'
p123
aS'Revolution OS'
p124
aS'Babies'
p125
aS'Beyond Hatred'
p126
aS'Aristide and Endless Revolution'
p127
aS'Stealing America: Vote by Vote'
p128
aS'Free Radicals: A History of Experimental Film'
p129
aS'Of Time and the City'
p130
aS'Angels in the Dust'
p131
aS'A Decade Under the Influence'
p132
aS'The Decline of Western Civilization Part II: The Metal Years'
p133
aS'A Trip to the Moon/The Extraordinary Voyage'
p134
aS'No End in Sight'
p135
aS'MC5: A True Testimonial'
p136
aS'Call + Response'
p137
aS'Lake of Fire'
p138
aS"2016 Obama's America"
p139
aS'Tsahal'
p140
aS'The Black Power Mix Tape: 1967-1975'
p141
aS'Can Mr. Smith Get to Washington Anymore?'
p142
aS'American Meat'
p143
aS'Troublesome Creek: A Midwestern'
p144
aS'When Comedy Went to School'
p145
aS'Kumare'
p146
aS'Hearts of Darkness'
p147
aS'Big Star: Nothing Can Hurt Me'
p148
aS'Magician: The Astonishing Life and Work of Orson Welles'
p149
aS'Etoiles: Dancers of the Paris Opera Ballet'
p150
aS"James Cameron's Deepsea Challenge 3D"
p151
aS'The Legend of Pale Male'
p152
aS'Fast Trip, Long Drop'
p153
aS'Anvil! The Story of Anvil'
p154
aS'Word Wars'
p155
aS'On Any Sunday: The Next Chapter'
p156
aS'Girls Rock!'
p157
aS'The Cats of Mirikitani'
p158
aS'The Ground Truth'
p159
aS'Heavy Metal in Baghdad'
p160
aS'The Overnighters'
p161
aS'Better Than Something: Jay Reatard'
p162
aS'Narco Cultura'
p163
aS'Step Up to the Plate'
p164
aS'Unmistaken Child'
p165
aS'Budrus'
p166
aS'Imaginary Witness: Hollywood and the Holocaust'
p167
aS'Katy Perry: Part of Me'
p168
aS'Been Rich All My Life'
p169
aS"Being Elmo: A Puppeteer's Journey"
p170
aS'Freeriders'
p171
aS'Sound City'
p172
aS'Shoot Down'
p173
aS'To Be Takei'
p174
aS'Mistaken for Strangers'
p175
aS"Putin's Kiss"
p176
aS'The First Saturday in May'
p177
aS"La Danse: Le Ballet de L'Opera de Paris"
p178
aS'The Cross: The Arthur Blessit Story'
p179
aS'Women, Art, Revolution'
p180
aS'Man on Wire'
p181
aS'Freakonomics'
p182
aS'Last Days in Vietnam'
p183
aS'Freedom on My Mind'
p184
aS'Plagues and Pleasures on the Salton Sea'
p185
aS'56 Up'
p186
aS'Bettie Page Reveals All'
p187
aS'Stripper'
p188
aS'I Am Ali'
p189
aS'Sisters in Law'
p190
aS'Inventing Our Life: The Kibbutz Experiment'
p191
aS'Valentino: The Last Emperor'
p192
aS'The Punk Singer'
p193
aS'The Most Dangerous Man in America: Daniel Ellsberg and the Pentagon Papers'
p194
aS'Forever'
p195
aS'Wild Man Blues'
p196
aS'Darfur Now'
p197
aS'Balseros'
p198
aS'Maya Lin: A Strong Clear Vision'
p199
aS'Knuckle'
p200
aS'Body of War'
p201
aS'How to Draw a Bunny'
p202
aS'Evergreen: The Road to Legalization'
p203
aS'Fighting for Life'
p204
aS'My Kid Could Paint That'
p205
aS'High Lonesome: The Story of Bluegrass Music'
p206
aS"Bustin' Down the Door"
p207
aS'Cool It'
p208
aS"You Don't Need Feet to Dance"
p209
aS'Orgasm Inc.'
p210
aS'Samsara'
p211
aS'Gringo Trails'
p212
aS'Mondo New York'
p213
aS"Jane's Journey"
p214
aS'The Optimists: The Story of the Rescue of the Bulgarian Jews from the Holocaust'
p215
aS'Klezmer on Fish Street'
p216
aS'Elevate'
p217
aS'The Highest Pass'
p218
aS'The Final Member'
p219
aS"New York in the 50's"
p220
aS'Inequality for All'
p221
aS'Video Games: The Movie'
p222
aS'Armadillo'
p223
aS'The Pruitt-Igoe Myth'
p224
aS'Until the Light Takes Us'
p225
aS'Cropsey'
p226
aS'Terms and Conditions May Apply'
p227
aS'District of Corruption'
p228
aS'March of the Penguins'
p229
aS"Constantine's Sword"
p230
aS'Dancemaker'
p231
aS'American: The Bill Hicks Story'
p232
aS'Rebirth'
p233
aS'The Agronomist'
p234
aS'Jesus, You Know'
p235
aS'The Bridge'
p236
aS'New York Doll'
p237
aS"Youssou N'Dour: I Bring What I Love"
p238
aS'West of Memphis'
p239
aS'4 Little Girls'
p240
aS'Love Etc.'
p241
aS'Searching for Sugar Man'
p242
aS'Weapons of the Spirit'
p243
aS'5 Broken Cameras'
p244
aS'Nenette'
p245
aS'Back Door Channels'
p246
aS'Room 237'
p247
aS'Expelled: No Intelligence Allowed'
p248
aS'35 Up'
p249
aS'Tibet: Cry of the Snow Lion'
p250
aS'The Queen of Versailles'
p251
aS'Crazy Love'
p252
aS'Once in a Lifetime'
p253
aS'OC87'
p254
aS'I Am Eleven'
p255
aS'Only When I Dance'
p256
aS'Oceans'
p257
aS'Bukowski: Born Into This'
p258
aS'Nanking'
p259
aS'On the Ropes'
p260
aS'Page One: A Year Inside the New York Times'
p261
aS'Blindsight'
p262
aS'Orchestra of Exiles'
p263
aS'Divan'
p264
aS'Sushi: The Global Catch'
p265
aS'Whiz Kids'
p266
aS'Rejoice and Shout'
p267
aS'Stop the Pounding Heart'
p268
aS'The 3 Rooms of Melancholia'
p269
aS'Bel Borba Aqui'
p270
aS'Food, Inc.'
p271
aS'Big Men'
p272
aS'Family Fundamentals'
p273
aS'Tabloid'
p274
aS'Ivory Tower'
p275
aS'Man on a Mission'
p276
aS'Verdict on Auschwitz'
p277
aS'Rhyme & Reason'
p278
aS'Andre Gregory: Before and After Dinner'
p279
aS'Kurt and Courtney'
p280
aS'Greedy Lying Bastards'
p281
aS'Crumb'
p282
aS'Walt & El Grupo'
p283
aS'The Flat'
p284
aS'Radio Unnameable'
p285
aS'The Beaches of Agnes'
p286
aS'Alice Neel'
p287
aS"Brother's Keeper"
p288
aS'Jean-Michel Basquiat: The Radiant Child'
p289
aS'Black White + Gray: A Portrait of Sam Wagstaff and Robert Mapplethorpe'
p290
aS"That's Dancing!"
p291
aS'Watermarks'
p292
aS'First Descent'
p293
aS'Sir! No Sir!'
p294
aS'Tyson'
p295
aS'Ballot Measure 9'
p296
aS'Broadway Idiot'
p297
aS'Dislecksia: The Movie'
p298
aS"You've Been Trumped"
p299
aS'Manda Bala (Send a Bullet)'
p300
aS'Darshan'
p301
aS'The Devil and Daniel Johnston'
p302
aS'Super Size Me'
p303
aS'Guerrilla: The Taking of Patty Hearst'
p304
aS'Voices in Wartime'
p305
aS'King Corn'
p306
aS'Hey, Boo: Harper Lee & To Kill A Mockingbird'
p307
aS'The Only Real Game'
p308
aS'Kicking It'
p309
aS'The Island President'
p310
aS'The Unknown Soldier'
p311
aS'42 Up'
p312
aS'Cutie and the Boxer'
p313
aS"Leonard Cohen I'm Your Man"
p314
aS'Waiting for Lightning'
p315
aS'How to Grow a Band'
p316
aS'The Wonderful, Horrible Life of Leni Riefenstahl'
p317
aS'The War Room'
p318
aS'Visions of Light'
p319
aS'Korengal'
p320
aS'Undefeated (2012)'
p321
aS'Biggie and Tupac'
p322
aS'Ballplayer: Pelotero'
p323
aS'Marley'
p324
aS'Tarnation'
p325
aS'Act of God'
p326
aS'The Missing Picture'
p327
aS'Shine a Light'
p328
aS'Life & Times of Hank Greenberg'
p329
aS'The Matador (2008)'
p330
aS"Monumental: In Search of America's National Treasure"
p331
aS'The Big One'
p332
aS'Shepard and Dark'
p333
aS'Enlighten Up!'
p334
aS'The Other City'
p335
aS'Men at Lunch'
p336
aS'The Search for General Tso'
p337
aS'Ai Weiwei: Never Sorry'
p338
aS'Catwalk'
p339
aS"The Pervert's Guide to Ideology"
p340
aS'The Cockettes'
p341
aS'Bowling for Columbine'
p342
aS'The War Tapes'
p343
aS'This Old Cub'
p344
aS'The Thin Blue Line'
p345
aS'After the Cup: Sons of Sakhnin United'
p346
aS'This Binary Universe'
p347
aS'Maxed Out'
p348
aS'Circo'
p349
aS'The Nomi Song'
p350
aS'Levitated Mass'
p351
aS'The Interrupters'
p352
aS'Winged Migration'
p353
aS'Mandela'
p354
aS'McLibel'
p355
aS'The Order of Myths'
p356
aS'Out of the Clear Blue Sky'
p357
aS'The Beauty Academy of Kabul'
p358
aS'The U.S. Vs. John Lennon'
p359
aS'Girl Rising'
p360
aS'Wild Horse Wild Ride'
p361
aS'The Swenkas'
p362
aS'Where in the World Is Osama Bin Laden?'
p363
aS'William S. Burroughs: A Man Within'
p364
aS'No Place on Earth'
p365
aS'Generation Iron'
p366
aS'Neil Young Journeys'
p367
aS'Smiling Through the Apocalypse'
p368
aS'I Have Never Forgotten You: The Life & Legacy of Simon Wiesenthal'
p369
aS'Who is Dayani Cristal?'
p370
aS'Project Nim'
p371
aS'The Gleaners and I'
p372
aS"Henri-Georges Clouzot's Inferno"
p373
aS'Twist (1993)'
p374
aS"Jupiter's Wife"
p375
aS'Still, We Believe: The Boston Red Sox Movie'
p376
aS'Buck'
p377
aS'Let It Come Down: The Life of Paul Bowles'
p378
aS'This Film Is Not Yet Rated'
p379
aS'Gay Sex in the 70s'
p380
aS'America: Freedom to Fascism'
p381
aS'K2: Siren of the Himalayas'
p382
aS'The Cove'
p383
aS'How to Cook Your Life'
p384
aS'Casting About'
p385
aS'To the Limit'
p386
aS'Muscle Shoals'
p387
aS'Sister Helen'
p388
aS'Meet the Mormons'
p389
aS'Fallen Idol: The Yuri Gagarin Conspiracy'
p390
aS'Mondovino'
p391
aS'Notes on Marie Menken'
p392
aS'The Beautiful Truth'
p393
aS'Running From Crazy'
p394
aS'Murderball'
p395
aS'Skid Row'
p396
aS'The Unforeseen'
p397
aS'Power and Terror: Noam Chomsky in Our Times'
p398
aS'Split: A Deeper Divide'
p399
aS"Fellini: I'm a Born Liar"
p400
aS'Marlene'
p401
aS'Death by China'
p402
aS'The House I Live In'
p403
aS'Waking Sleeping Beauty'
p404
aS'The Woman with the Five Elephants'
p405
aS'Trying to Get Good: The Jazz Odyssey of Jack Sheldon'
p406
aS'Paris is Burning'
p407
aS'Suicide Killers'
p408
aS"Saint Misbehavin': The Wavy Gravy Movie"
p409
aS'Planet of Snail'
p410
aS'War Photographer'
p411
aS'Beautopia'
p412
aS'El Bulli: Cooking in Progress'
p413
aS'America (2014)'
p414
aS'Pray the Devil Back to Hell'
p415
aS'Act of Killing'
p416
aS'More Than the Rainbow'
p417
aS'Benda Bilili!'
p418
aS'Before You Know It'
p419
aS'Into the Arms of Strangers'
p420
aS'Crime After Crime'
p421
aS'Aatsinki: The Story of Arctic Cowboys'
p422
aS'Camden 28'
p423
aS'loudQUIETloud: A Film About The Pixies'
p424
aS'Earth (2009)'
p425
aS'Mumia: Long Distance Revolutionary'
p426
aS'Eleven Minutes'
p427
aS'A Band Called Death'
p428
aS'Triumph of the Wall'
p429
aS'Broadway: The Golden Age'
p430
aS'Microcosmos'
p431
aS'Up for Grabs'
p432
aS'Collapse'
p433
aS'Finding Joe'
p434
aS'I Trust You to Kill Me'
p435
aS'Brothers at War'
p436
aS'The Girl Next Door (2000)'
p437
aS'How to Make Money Selling Drugs'
p438
aS'Lost Angels: Skid Row is My Home'
p439
aS'Citizenfour'
p440
aS'Go Tigers!'
p441
aS'The Panama Deception'
p442
aS'Maidentrip'
p443
aS'Connected'
p444
aS'Under Our Skin'
p445
aS"Everything's Cool"
p446
aS'Documented'
p447
aS'DIG!'
p448
aS'20,000 Days on Earth'
p449
aS'Dogtown and Z-Boys'
p450
aS'Southpaw: The Francis Barrett Story'
p451
aS'Yiddish Theater: A Love Story'
p452
aS'Making Grace'
p453
aS'Vincent: The Life and Death of Vincent Van Gogh'
p454
aS'Benjamin Smoke'
p455
aS'Into Eternity'
p456
aS'Ai Weiwei: The Fake Case'
p457
aS'Searching for the Wrong-Eyed Jesus'
p458
aS'Sholem Aleichem: Laughing in the Darkness'
p459
aS'Birth of the Living Dead'
p460
aS'More Than a Game'
p461
aS'Bus 174'
p462
aS'The Ister'
p463
aS'American Made Movie'
p464
aS'Our Nixon'
p465
aS'The Color of Olives'
p466
aS'Life Itself'
p467
aS'Particle Fever'
p468
aS'Harry Dean Stanton: Partly Fiction'
p469
aS'Happy Valley (2014)'
p470
aS'Patience (After Sebald)'
p471
aS'Bookers Place'
p472
aS'Anne Frank Remembered'
p473
aS'Air Guitar Nation'
p474
aS'Enron: The Smartest Guys in the Room'
p475
aS'Jason Becker: Not Dead Yet'
p476
aS"Glen Campbell... I'll Be Me"
p477
aS'Shoah'
p478
aS'The Law in These Parts'
p479
aS'Comedian'
p480
aS'Ultrasuede'
p481
aS'The Empire in Africa'
p482
aS'49 Up'
p483
aS'The Unbelievers'
p484
aS'The King of Kong: A Fistful of Quarters'
p485
aS'Inside Deep Throat'
p486
aS'Chop Suey'
p487
aS'Inni'
p488
aS'Forgiving Dr. Mengele'
p489
aS'Gonzo'
p490
aS'East of Havana'
p491
aS'Moving the Mountain'
p492
aS'Startup.com'
p493
aS'The Fall of Fujimori'
p494
aS'William Kunstler: Disturbing the Universe'
p495
aS'American Swing'
p496
aS"12 O'Clock Boys"
p497
aS'Stolen Childhoods'
p498
aS'The Ballad of Bering Strait'
p499
aS"In the Face of Evil: Reagan's War in Word and Deed"
p500
aS'Where Are You Taking Me?'
p501
aS'Outrage'
p502
aS'Windfall'
p503
aS"Herman's House"
p504
aS'2012: Time for Change'
p505
aS'Genesis'
p506
aS'Touch the Wall'
p507
aS'God and Gays: Bridging the Gap'
p508
aS'Resurrect Dead: The Mystery of the Toynbee Tiles'
p509
aS'Trembling Before G-d'
p510
aS'The Ghosts In Our Machine'
p511
aS'Power Trip'
p512
aS'Sobibor, October 14, 1943, 4PM'
p513
aS'F**k'
p514
aS'Roman Polanski: Wanted and Desired'
p515
aS'I.O.U.S.A.'
p516
aS'Marina Abramovic: The Artist is Present'
p517
aS'An Unreasonable Man'
p518
aS'Downloaded'
p519
aS'Expedition to the End of the World'
p520
aS'We Live in Public'
p521
aS"Tim's Vermeer"
p522
aS'Something From Nothing: The Art of Rap'
p523
aS'The Man Nobody Knew: In Search of My Father, CIA Spymaster William Colby'
p524
aS'Dancing in Jaffa'
p525
aS'Inside Job'
p526
aS'The Last Of The Unjust'
p527
aS'Wagner & Me'
p528
aS'Restrepo'
p529
aS"Gunnin' for That #1 Spot"
p530
aS'Hating Breitbart'
p531
aS'Amandla!'
p532
aS"Emmanuel's Gift"
p533
aS'Ayurveda: The Art of Being'
p534
aS'A Wink and a Smile'
p535
aS'Young@Heart'
p536
aS'Robert Blecker Wants Me Dead'
p537
aS'Nuclear Nation'
p538
aS'Genius Within: The Inner Life of Glenn Gould'
p539
aS'Gogol Bordello Non-Stop'
p540
aS'The Garden'
p541
aS'Whitey: USA v. James J. Bulger'
p542
aS'Pina'
p543
aS'Revenge of the Electric Car'
p544
aS'One Bright Shining Moment: The Forgotten Summer of George McGovern'
p545
aS'Regret to Inform'
p546
aS'Tom Dowd and the Language of Music'
p547
aS'War/Dance'
p548
aS'The Institute'
p549
aS'Nostalgia for the Light'
p550
aS'Dear Jesse'
p551
aS'Gotta Dance'
p552
aS'The Goebbels Experiment'
p553
aS'Strange Powers: Stephin Merritt and the Magnetic Fields'
p554
aS'Mr. Death'
p555
aS'The Invisible War'
p556
aS'Rape of the Soul'
p557
aS'Flying: Confessions of a Free Woman'
p558
aS'Rize'
p559
aS'The Betrayal'
p560
aS'Journeys with George'
p561
aS'Through the Fire'
p562
aS'Twisted: A Balloonamentary'
p563
aS'The Summit'
p564
aS'Our City Dreams'
p565
aS'The Galapagos Affair: Satan Came to Eden'
p566
aS'Storm Surfers 3D'
p567
aS'Unzipped'
p568
aS'Lagerfeld Confidential'
p569
aS'Call Me Kuchu'
p570
aS'Is the Man Who Is Tall Happy?'
p571
aS'These Birds Walk'
p572
aS'Great Directors'
p573
aS'Children Underground'
p574
aS'Theremin: An Electronic Odyssey'
p575
aS'Out of the Past (1998)'
p576
aS'The Unknown Known'
p577
aS'Every Little Step'
p578
aS'Crude'
p579
aS'Uncovered: The War on Iraq'
p580
aS"Vince Vaughn's Wild West Comedy Show: 30 Days & 30 Nights - From Hollywood to the Heartland"
p581
aS'The Fog of War'
p582
aS'Capturing the Friedmans'
p583
aS'Desert Bayou'
p584
aS'Sunset Story'
p585
aS'Under the Boardwalk: The Monopoly Story'
p586
aS'Watermark'
p587
aS'Regina Spektor: Live In London'
p588
aS'Thelonious Monk: Straight, No Chaser'
p589
aS'God the Father'
p590
aS'The Wild Parrots of Telegraph Hill'
p591
aS'The Backyard'
p592
aS'For the Bible Tells Me So'
p593
aS'Elena (2014)'
p594
aS'Imagine: John Lennon'
p595
aS'Trumbo'
p596
aS"A Mother's Courage: Talking Back to Autism"
p597
aS'Stolen'
p598
aS'In the Shadow of the Moon'
p599
aS'On the Rumba River'
p600
aS'The Topp Twins: Untouchable Girls'
p601
aS'Guitar Innovators: John Fahey & Nels Cline'
p602
aS'With God on Our Side: George W. Bush...'
p603
aS'Three Stars'
p604
aS'Life and Debt'
p605
aS'With All Deliberate Speed'
p606
aS'Deceptive Practice: The Mysteries and Mentors of Ricky Jay'
p607
aS'Forks Over Knives'
p608
aS"Black Is, Black Ain't"
p609
aS'Listen Up: The Lives of Quincy Jones'
p610
aS'The Yes Men'
p611
aS'Sicko'
p612
aS'Sagrada: The Mystery of Creation'
p613
aS'So Much So Fast'
p614
aS'The Hip Hop Project'
p615
aS'Promises'
p616
aS'GasLand'
p617
aS'Somm'
p618
aS'We Steal Secrets: The Story of Wikileaks'
p619
aS'Words of My Perfect Teacher'
p620
aS'Scratch'
p621
aS"Workingman's Death"
p622
aS'Pressure Cooker'
p623
aS'The Imposter'
p624
aS'Dirty Wars'
p625
aS'A Film Unfinished'
p626
aS'Absolute Wilson'
p627
aS'The Undefeated (2011)'
p628
aS'Hiding and Seeking'
p629
aS'Carbon Nation'
p630
aS"There's No Place Like Utopia"
p631
aS'Exit Through the Gift Shop'
p632
aS'Life in a Day'
p633
aS'The Celluloid Closet'
p634
aS'Born Into Brothels'
p635
aS'The Red Chapel'
p636
aS'Celsius 41.11: The Truth Behind the Lies of Fahrenheit 9/11'
p637
aS'Surviving Progress'
p638
aS'Crop Circles: Quest for Truth'
p639
aS'Louder Than a Bomb'
p640
aS'Sweetgrass'
p641
aS'America Betrayed'
p642
aS'Hannari - Geisha Modern'
p643
aS'A Decent Factory'
p644
aS'Smash & Grab: The Story of the Pink Panthers'
p645
aS'Vajra Sky Over Tibet'
p646
aS'Going Upriver: The Long War of John Kerry'
p647
aS'The Kid Stays in the Picture'
p648
aS"Oswald's Ghost"
p649
aS'Mercedes Sosa: The Voice of Latin America'
p650
aS'Beyond Barbed Wire'
p651
aS'Blockade'
p652
aS"L'Amour Fou"
p653
aS"Dr. Bronner's Magic Soapbox"
p654
aS'Mayor of the Sunset Strip'
p655
aS'Defamation'
p656
aS'Religulous'
p657
aS'In the Realms of the Unreal'
p658
aS'Three of Hearts'
p659
aS'Pink Ribbons, Inc.'
p660
aS'Somewhere Between'
p661
aS'Glastonbury'
p662
aS'The Untold Story of Emmett Louis Till'
p663
aS'Incident at Oglala'
p664
aS'Gottfried Helnwein and the Dreaming Child'
p665
aS'The Way We Get By'
p666
aS'The Protagonist'
p667
aS'Linsanity'
p668
aS'Jesus Camp'
p669
aS"The Ballad of Ramblin' Jack"
p670
aS'7th Street'
p671
aS'Rock Bottom'
p672
aS'Surfwise'
p673
aS'Garbo: The Spy'
p674
aS'Arctic Tale'
p675
aS'The Pleasures of Being Out of Step'
p676
aS'Riding Giants'
p677
aS'My Country, My Country'
p678
aS'Faster (2004)'
p679
aS'The Last Lions'
p680
aS'Neshoba: The Price of Freedom'
p681
aS'The Life and Times of Allen Ginsberg'
p682
aS'Best Worst Movie'
p683
aS"Hitler's Children"
p684
aS'Alive Inside'
p685
aS'Cave of Forgotten Dreams'
p686
aS'Dumbstruck'
p687
aS'Deep Blue'
p688
aS'Roger and Me'
p689
aS'Beautiful Losers'
p690
aS'Hands on a Hard Body'
p691
aS'The Principle'
p692
aS'Running with Arnold'
p693
aS'The Square (2013)'
p694
aS'Crossing the Line'
p695
aS'Finding Vivian Maier'
p696
aS'Food Beware'
p697
aS'Mugabe and the White African'
p698
aS'They Come to America'
p699
aS'Marwencol'
p700
aS'Gerhard Richter Painting'
p701
aS'America the Beautiful 2: The Thin Commandments'
p702
aS'Fatal Assistance'
p703
aS'Veil of Tears'
p704
aS'ABC Africa'
p705
aS'Tchoupitoulas'
p706
aS'Gore Vidal: United States of Amnesia'
p707
aS'State of Fear'
p708
aS'Becoming Traviata'
p709
aS'Pearl Jam Twenty'
p710
aS'Zoo'
p711
aS'La Maison De La Radio'
p712
aS'Ferlinghetti: The Rebirth of Wonder'
p713
aS'Sweethearts of the Prison Rodeo'
p714
aS"The Endurance: Shackleton's Antarctic Adventure"
p715
aS'Poisoned by Polonium: The Litvinenko File'
p716
aS'Al Franken: God Spoke'
p717
aS'Free the Mind'
p718
aS'Bill Cunningham New York'
p719
aS'Islam: What the West Needs to Know'
p720
aS'Venus and Serena'
p721
aS'Shanghai Ghetto'
p722
aS'Joan Rivers: A Piece of Work'
p723
aS'The Corporation'
p724
aS'The Homestretch'
p725
aS'Cocaine Cowboys'
p726
aS'Voices of Iraq'
p727
aS'Paul Goodman Changed My Life'
p728
aS'Patagonia Rising'
p729
aS'The Lottery'
p730
aS'Morning Light'
p731
aS'Waste Land'
p732
aS'Into the Abyss'
p733
aS'Fast, Cheap and Out of Control'
p734
aS'Full Battle Rattle'
p735
aS'Genghis Blues'
p736
aS'Romantico'
p737
aS'The Settlers'
p738
aS'Boogie Man: The Lee Atwater Story'
p739
aS'Sacco and Vanzetti'
p740
aS'Otter 501'
p741
aS'Step Into Liquid'
p742
aS'Herb and Dorothy 50x50'
p743
aS'The Informant'
p744
aS'Sex with Strangers'
p745
aS'Free Angela and All Political Prisoners'
p746
aS'My Flesh and Blood'
p747
aS'NAS: Time is Illmatic'
p748
aS'Naked Fame'
p749
aS'Kurt Cobain About a Son'
p750
aS'Carmen & Geoffrey'
p751
aS'Flex is Kings'
p752
aS'Meet the Fokkens'
p753
aS'The Last Mogul'
p754
aS'Teenage'
p755
aS'Supermensch: The Legend of Shep Gordon'
p756
aS'The Tillman Story'
p757
aS'The Last Party'
p758
aS'Rising From Ashes'
p759
aS"Pay 2 Play: Democracy's High Stakes"
p760
aS'China Blue'
p761
aS'Jonestown: The Life and Death of Peoples Temple'
p762
aS'In a Dream'
p763
aS'The Armstrong Lie'
p764
aS'The Weird World of Blowfly'
p765
aS'Souldier'
p766
aS'An Inconsistent Truth'
p767
aS'Carol Channing: Larger Than Life'
p768
aS'For No Good Reason'
p769
aS'Runaway Slave'
p770
aS'Revenge of the Mekons'
p771
aS'Shut Up and Sing'
p772
aS"The Sun Behind the Clouds: Tibet's Struggle for Freedom"
p773
aS'American Storytellers'
p774
aS'Limelight'
p775
aS'Greenwich Village: Music That Defined a Generation'
p776
aS'Show Business'
p777
aS'The Trials of Darryl Hunt'
p778
aS'The Case of the Grinning Cat'
p779
aS'Who Gets to Call It Art?'
p780
aS'El Inmigrante'
p781
aS'Rockets Redglare!'
p782
aS'Cousin Jules'
p783
aS'The Trials of Henry Kissinger'
p784
aS'whaledreamers'
p785
aS'Dancing Across Borders'
p786
aS'POM Wonderful Presents: The Greatest Movie Ever Sold'
p787
aS'For All Mankind'
p788
aS"The Boys: The Sherman Brothers' Story"
p789
aS'Monumental'
p790
aS'The Real Dirt on Farmer John'
p791
aS'Quantum Hoops'
p792
aS'Visual Acoustics'
p793
aS'Picture Me'
p794
aS'Turtle: The Incredible Journey'
p795
aS'Herb & Dorothy'
p796
aS"Outfoxed: Rupert Murdoch's War on Journalism"
p797
aS'And Everything is Going Fine'
p798
aS"Never Stand Still: Dancing at Jacob's Pillow"
p799
aS'Protocols of Zion'
p800
aS'Looking for Richard'
p801
aS'Oh My God?'
p802
aS"Far Out Isn't Far Enough: The Tomi Ungerer Story"
p803
aS"Keep On Keepin' On"
p804
aS'Transformation: The Life and Legacy of Werner Erhard'
p805
aS'Design is One'
p806
aS'Let the Fire Burn'
p807
aS'Screamers (2006)'
p808
aS'Capitalism: A Love Story'
p809
aS'National Gallery'
p810
aS'Art Is... The Permanent Revolution'
p811
aS'Paul Williams Still Alive'
p812
aS'Imelda'
p813
aS"Don't Stop Believin': Everyman's Journey"
p814
aS'Fed Up'
p815
aS'Two by Scorsese (re-issue)'
p816
aS'Bloodline'
p817
aS'American Movie'
p818
aS'The Eyes of Tammy Faye'
p819
aS"She's Beautiful When She's Angry"
p820
aS'Spinning Plates'
p821
aS'Killing Kasztner'
p822
aS'That Man: Peter Berlin'
p823
aS'Future of Food'
p824
aS'Justin Bieber: Never Say Never'
p825
aS'The Gatekeepers'
p826
aS'The Last Dispatch'
p827
aS'Chimpanzee'
p828
aS'The Central Park Five'
p829
aS'Risk/Reward'
p830
aS'Carlos Castaneda: Enigma of a Sorcerer'
p831
aS'Rock School'
p832
aS'The Revisionaries'
p833
aS'Tying the Knot'
p834
aS'Ballets Russes'
p835
aS"Blind Spot: Hitler's Secretary"
p836
aS'Paper Clips'
p837
aS'Bonhoeffer'
p838
aS'Hecho En Mexico'
p839
aS'To Be and to Have'
p840
aS'Writer of O'
p841
aS'Four Seasons Lodge'
p842
aS'Muhammad Ali, The Greatest'
p843
aS"Primo Levi's Journey"
p844
aS'No Impact Man'
p845
aS"The Hornet's Nest"
p846
aS'FLOW: For Love of Water'
p847
aS'Girl Model'
p848
aS'Glass: A Portrait of Philip in Twelve Parts'
p849
aS'Dust to Glory'
p850
aS'Saints and Sinners'
p851
aS'I Am'
p852
aS'A Place at the Table'
p853
aS'Beyond Vanilla'
p854
aS'The Dhamma Brothers'
p855
aS'Proteus: A Nineteenth Century Vision'
p856
aS'An Inconvenient Truth'
p857
aS'Scottsboro: An American Tragedy'
p858
aS'Blood and Tears'
p859
aS'Payback (2012)'
p860
aS'Shakespeare Behind Bars'
p861
aS'A Man Named Pearl'
p862
aS'Unknown White Male'
p863
aS'Derrida'
p864
aS'Jamel Shabazz Street Photographer'
p865
aS'Heavy Petting'
p866
aS'Good Hair'
p867
aS"Jodorowsky's Dune"
p868
aS'Black Gold'
p869
aS'Fuel'
p870
aS'What Would Jesus Buy?'
p871
aS'Looking for an Icon'
p872
aS'Speaking in Strings'
p873
aS'A Walk to Beautiful'
p874
aS'Lost Boys of Sudan'
p875
aS'Last Days Here'
p876
aS'The Green Prince'
p877
aS'Iraq in Fragments'
p878
aS'Thunder Soul'
p879
aS'Crazy Wisdom'
p880
aS'The Price of Sugar'
p881
aS'Sarah Palin - You Betcha!'
p882
aS'The Five Obstructions'
p883
aS'Standing by Yourself'
p884
aS'Over Your Cities Grass Will Grow'
p885
aS'The Yes Men Fix the World'
p886
aS'South of the Border'
p887
aS'American Pimp'
p888
aS'Wrestling with Angels: Playwright Tony Kushner'
p889
aS'Why We Fight'
p890
aS'Stonewall Uprising'
p891
aS'Through a Lens Darkly'
p892
aS'Zizek!'
p893
aS'The Whale'
p894
aS'The Dog'
p895
aS'Happy People: A Year in the Taiga'
p896
aS'Brooklyn Castle'
p897
aS'Public Speaking'
p898
aS'The Last Mountain'
p899
aS'Cameraman: The Work and Life of Jack Cardiff'
p900
aS'How to Live Forever'
p901
aS'Incendiary'
p902
aS'Stolen Moments'
p903
aS'Evocateur: The Morton Downey Jr. Movie'
p904
aS"See What I'm Saying: The Deaf Entertainers Documentary"
p905
aS'Horse Boy'
p906
aS'Sex Positive'
p907
aS'My Reincarnation'
p908
aS'Long Shot: The Kevin Laue Story'
p909
aS'Phil Ochs: There But For Fortune'
p910
aS'Martha and Ethel'
p911
aS'Yoo-Hoo, Mrs. Goldberg'
p912
aS'Love, Marilyn'
p913
aS'Senna'
p914
aS'Spark: A Burning Man Story'
p915
aS'Last Call at the Oasis'
p916
aS"Ain't In It For My Health: A Film About Levon Helm"
p917
aS'A Letter to True'
p918
aS'The Immortalists'
p919
aS'I Like Killing Flies'
p920
aS'The Woodmans'
p921
aS'The Cartel'
p922
aS'Casting By'
p923
aS'Algorithms'
p924
aS'Exporting Raymond'
p925
aS'Stoked: The Rise and Fall of Gator'
p926
aS'The End of Time'
p927
aS'Carmen Miranda: Bananas Is My Business'
p928
aS"The Internet's Own Boy"
p929
aS'Without the King'
p930
aS'Jiro Dreams of Sushi'
p931
aS'Head Games'
p932
aS'Fired!'
p933
aS'The 11th Hour'
p934
aS'How to Survive a Plague'
p935
aS'Pump'
p936
aS'A Lawyer Walks Into a Bar...'
p937
aS'The Heart of the Game'
p938
aS"Terror's Advocate"
p939
aS'Beyond Sight: The Derek Rabelo Story'
p940
aS'Steal a Pencil for Me'
p941
aS'Weapons of Mass Deception'
p942
aS'Wigstock: The Movie'
p943
aS'Black Diamond Rush'
p944
aS'A People Uncounted'
p945
aS'Grass'
p946
aS'Operation Homecoming'
p947
aS'Antarctica: A Year on Ice'
p948
aS'51 Birch Street'
p949
aS'The Other F Word'
p950
aS'Ghosts of Cite Soleil'
p951
aS'Joe Strummer: The Future Is Unwritten'
p952
aS'American Hardcore'
p953
aS'Los Angeles Plays Itself'
p954
aS'Kings of Pastry'
p955
aS"Scatter My Ashes at Bergdorf's"
p956
aS'Peace, Propaganda and the Promised Land'
p957
aS'Home of the Brave (2004)'
p958
aS'We Are the Giant'
p959
aS'My Perestroika'
p960
aS'Next Goal Wins'
p961
aS'My Architect'
p962
aS'Jews of Egypt'
p963
aS'Le Joli Mai'
p964
aS'The Good Old Naughty Days'
p965
aS"America's Heart and Soul"
p966
aS'Manufactured Landscapes'
p967
aS'Planet B-Boy'
p968
aS'Chris & Don. A Love Story'
p969
aS'Beautiful Darling'
p970
aS"King Leopold's Ghost"
p971
aS'Hoop Dreams'
p972
aS'The Ambassador'
p973
aS'Giuliani Time'
p974
aS'Farmageddon'
p975
aS'Waiting for Armageddon'
p976
aS'Citizen Koch'
p977
aS'Touch the Sound'
p978
aS'I Am Trying to Break Your Heart'
p979
aS'The Other Dream Team'
p980
aS'Kill Your Idols'
p981
aS'American Casino'
p982
aS'The Turandot Project'
p983
aS'Earth Days'
p984
aS'Trouble the Water'
p985
aS'Henri Cartier-Bresson: The Impassioned Eye'
p986
aS'Escape Fire'
p987
aS"People Say I'm Crazy"
p988
aS'The September Issue'
p989
aS'Sputnik Mania'
p990
aS'The Filth and the Fury'
p991
aS'Only the Young'
p992
aS'How Much Does Your Building Weigh, Mr. Foster?'
p993
aS'Tell Them Who You Are'
p994
aS'Moving Midway'
p995
aS'The Hunting of the President'
p996
aS'The Last Days'
p997
aS'Eat This New York'
p998
aS'Something to Cheer About'
p999
aS'The Trials of Muhammad Ali'
p1000
aS'Drew: The Man Behind the Poster'
p1001
aS'The Weather Underground'
p1002
aS'So Goes the Nation'
p1003
aS'The Wildest Dream'
p1004
aS'God Loves Uganda'
p1005
aS'Meeting Resistance'
p1006
aS"Let's Get Frank"
p1007
aS'Kabbalah Me'
p1008
aS'High Tech, Low Life'
p1009
aS'Blank City'
p1010
aS'Refusenik'
p1011
aS'NOW: In the Wings on a World Stage'
p1012
aS'A Personal Journey with Martin Scorsese Through American Movies'
p1013
aS'Art and Craft'
p1014
aS'Red Army'
p1015
aS'Catfish'
p1016
aS'Ever Again'
p1017
aS'Battle for Brooklyn'
p1018
aS'Brother Minister: The Assassination of Malcolm X'
p1019
aS'What Now? Remind Me'
p1020
aS'One Direction: This is Us'
p1021
aS'Detropia'
p1022
aS'Plastic Planet'
p1023
aS"This Ain't No Mouse Music!"
p1024
aS'Manakamana'
p1025
aS'The Line King: Al Hirschfeld'
p1026
aS'Control Room'
p1027
aS'Sacred Stage'
p1028
aS'Hats Off'
p1029
aS'Powaqqatsi'
p1030
aS"Conan O'Brien Can't Stop"
p1031
aS'Visitors (2014)'
p1032
aS'Advanced Style'
p1033
aS'Khodorkovsky'
p1034
aS'Assaulted: Civil Rights Under Fire'
p1035
aS'Client 9: The Rise and Fall of Eliot Spitzer'
p1036
aS'Cuba: Island of Music'
p1037
aS'Madonna: Truth or Dare'
p1038
aS'A Great Day in Harlem'
p1039
aS'Trudell'
p1040
aS'Occupy Unmasked'
p1041
aS'The Photographer, His Wife, Her Lover'
p1042
aS'Paradise Lost'
p1043
aS'Return to the Land of Wonders'
p1044
aS'If a Tree Falls: A Story of the Earth Liberation Front'
p1045
aS'Elaine Stritch: Shoot Me'
p1046
aS'Sol LeWitt'
p1047
aS'Awake: The Life of Yogananda'
p1048
aS'Brothers in Arms'
p1049
aS'American Teen'
p1050
aS'Gunner Palace'
p1051
aS'Red Hollywood'
p1052
aS'Who Killed the Electric Car?'
p1053
aS'The Waiting Room'
p1054
aS'The Aggressives'
p1055
aS'Our Brand Is Crisis'
p1056
aS'After Tiller'
p1057
aS'The Art of the Steal'
p1058
aS'Hell and Back Again'
p1059
aS'America the Beautiful'
p1060
aS'Bert Stern: Original Mad Man'
p1061
aS'The Prisoner or: How I Planned to Kill Tony Blair'
p1062
aS'The Sons of Tennessee Williams'
p1063
aS'Side By Side'
p1064
aS'Fire in the Blood'
p1065
aS'The Brandon Teena Story'
p1066
aS'Guest of Cindy Sherman'
p1067
aS'Deliver Us from Evil (2006)'
p1068
aS'Decoding Deepak'
p1069
aS'Saint of 9/11'
p1070
aS'GMO OMG'
p1071
aS'Mademoiselle C'
p1072
aS'Follow Me: The Yoni Netanyahu Story'
p1073
aS"Whores' Glory"
p1074
aS'Making the Boys'
p1075
aS'Fifi Howls From Happiness'
p1076
aS'The Take'
p1077
aS'Praying with Lior'
p1078
aS'A Brief History of Time'
p1079
aS'Salinger'
p1080
aS'More Than Honey'
p1081
aS'Bears'
p1082
aS'The Wonder of It All'
p1083
aS'Hybrid'
p1084
aS'Kids For Cash'
p1085
aS'Jimmy Carter Man from Plains'
p1086
aS'Paper Dolls'
p1087
aS'20 Feet from Stardom'
p1088
aS'Lipstick and Dynamite'
p1089
aS'Hit So Hard'
p1090
aS"The Letter: An American Town and the 'Somali Invasion'"
p1091
aS'Congo: White King, Red Rubber, Black Death'
p1092
aS'The Year of the Yao'
p1093
aS'Mad Hot Ballroom'
p1094
aS'Weekend of a Champion'
p1095
aS'Bounce: Behind the Velvet Rope'
p1096
aS'Nursery University'
p1097
aS'The Devil Came on Horseback'
p1098
aS'Soul Power'
p1099
aS'Encounters at the End of the World'
p1100
aS'Chely Wright: Wish Me Away'
p1101
aS'Naqoyqatsi'
p1102
aS'Fraude'
p1103
aS'Blackfish'
p1104
aS'The First Basket'
p1105
aS'If You Build It'
p1106
aS'Standard Operating Procedure'
p1107
aS'Koch'
p1108
aS'Walking on Dead Fish'
p1109
aS'Sound and Fury'
p1110
aS'Louise Bourgeois: The Spider, The Mistress and the Tangerine'
p1111
aS'Children of Fate'
p1112
aS'Street Fight'
p1113
aS'Spellbound (2003)'
p1114
aS'Stevie'
p1115
aS'This Divided State'
p1116
aS'Hava Nagila (The Movie)'
p1117
aS'Shake Hands with the Devil: The Journey of Romeo Dallaire'
p1118
aS'Saving Marriage'
p1119
aS'The Windmill Movie'
p1120
aS"Long Night's Journey Into Day"
p1121
aS'Born to Fly: Elizabeth Streb vs. Gravity'
p1122
aS'Diana Vreeland: The Eye Has to Travel'
p1123
aS'Granito: How to Nail a Dictator'
p1124
aS'First Position'
p1125
aS'The Beat Hotel'
p1126
aS'Steep'
p1127
aS'Short Cut to Nirvana: Kumbh Mela'
p1128
aS'Crips and Bloods: Made in America'
p1129
aS'China Heavyweight'
p1130
aS'Billy the Kid'
p1131
aS'Full-Tilt Boogie'
p1132
aS'The Aristocrats'
p1133
aS'Bhutto'
p1134
aS'Examined Life'
p1135
aS'Wall'
p1136
aS'Stone Reader'
p1137
aS'On the Bowery (re-release)'
p1138
aS'The City Dark'
p1139
aS'Last Train Home'
p1140
aS'God Grew Tired of Us'
p1141
aS'Afghan Star'
p1142
aS'Code Black'
p1143
aS'Chicago 10'
p1144
aS'One Track Heart: The Story of Krishna Das'
p1145
aS'Who Does She Think She Is?'
p1146
aS'The Endless Summer II'
p1147
aS'Dear Mr. Watterson'
p1148
aS'Your Mommy Kills Animals'
p1149
aS'Better Living Through Circuitry'
p1150
aS'Girlhood'
p1151
aS'Ballerina'
p1152
aS'Tupac: Resurrection'
p1153
aS'The Cult of the Suicide Bomber'
p1154
aS'When We Were Kings'
p1155
aS'Sharkwater'
p1156
aS'Red Obsession'
p1157
aS'Wordplay'
p1158
aS'In the Mirror of Maya Deren'
p1159
aS'The Tower (2014)'
p1160
aS'American Dream'
p1161
aS'Next Year Jerusalem'
p1162
aS'Addiction Incorporated'
p1163
aS'I Want Your Money'
p1164
aS'Heidi Fleiss: Hollywood Madame'
p1165
aS'The Boys of Baraka'
p1166
aS'Watchers of the Sky'
p1167
aS'Beware of Mr. Baker'
p1168
aS'Porn Star: The Legend of Ron Jeremy'
p1169
aS'William Eggleston in the Real World'
p1170
aS'Small Wonders'
p1171
aS'Bright Leaves'
p1172
aS'Fidel'
p1173
aS'Keep the River on Your Right - A Modern Cannibal Tale'
p1174
aS"Corman's World"
p1175
aS"You're Gonna Miss Me"
p1176
aS'Mansome'
p1177
aS'Cowboy del Amor'
p1178
aS'Gregory Crewdson: Brief Encounters'
p1179
aS'Magic Trip'
p1180
aS'Gypsy Caravan'
p1181
aS'Chelsea on the Rocks'
p1182
aS'Still, the Children Are Here'
p1183
aS'Metallica: Some Kind of Monster'
p1184
aS'The Great Invisible'
p1185
aS'American Cannibal'
p1186
aS'Dare Not Walk Alone'
p1187
aS'Afternoon of a Faun'
p1188
aS'Bully (2012)'
p1189
aS'Showrunners: The Art of Running a TV Show'
p1190
aS'Mr. Untouchable'
p1191
aS'Road Scholar'
p1192
aS'Lost in La Mancha'
p1193
aS'Rock the Bells'
p1194
aS'Plot for Peace'
p1195
aS'Beyond the Mat'
p1196
aS'Into Great Silence'
p1197
aS'At Berkeley'
p1198
aS"Comic-Con Episode IV: A Fan's Hope"
p1199
aS'Stations of the Elevated'
p1200
aS'Waiting for '
p1201
aS'End of the Century: The Story of the Ramones'
p1202
aS'Living in Emergency'
p1203
aS'American Promise'
p1204
aS'One Day in September'
p1205
aS'Patti Smith: Dream of Life'
p1206
aS'Anita'
p1207
aS'The Business of Being Born'
p1208
aS'Gigantic: A Tale of Two Johns'
p1209
aS"Bush's Brain"
p1210
aS'The Autobiography of Nicolae Ceausescu'
p1211
aS'Paragraph 175'
p1212
aS'Music from the Inside Out'
p1213
aS'Herbie Hancock: Possibilities'
p1214
aS'Photographic Memory'
p1215
aS'The Hacker Wars'
p1216
aS"'Tis Autumn: The Search for Jackie Paris"
p1217
aS'Dreams of a Life'
p1218
aS'People of a Feather'
p1219
aS'Take Me to the River'
p1220
aS'Half the Road'
p1221
aS'This So-Called Disaster'
p1222
aS'It Might Get Loud'
p1223
aS'Reel Paradise'
p1224
aS'Actress (2014)'
p1225
aS'In No Great Hurry: 13 Lessons in Life with Saul Leiter'
p1226
atp1227
bsg35
Nstp1228
Rp1229
a(lp1230
g13
(g14
(I0
tp1231
g16
tp1232
Rp1233
(I1
(I6
I1183
tp1234
g23
I00
(lp1235
S'1046'
p1236
aS'838'
p1237
aS'545'
p1238
aS'1020'
p1239
aS'386'
p1240
aS'948'
p1241
aS'1017'
p1242
aS'167'
p1243
aS'522'
p1244
aS'887'
p1245
aS'267'
p1246
aS'591'
p1247
aS'917'
p1248
aS'337'
p1249
aS'930'
p1250
aS'458'
p1251
aS'1083'
p1252
aS'128'
p1253
aS'577'
p1254
aS'528'
p1255
aS'868'
p1256
aS'879'
p1257
aS'14'
p1258
aS'788'
p1259
aS'1186'
p1260
aS'678'
p1261
aS'1191'
p1262
aS'740'
p1263
aS'526'
p1264
aS'1176'
p1265
aS'485'
p1266
aS'1208'
p1267
aS'898'
p1268
aS'275'
p1269
aS'1222'
p1270
aS'1207'
p1271
aS'1132'
p1272
aS'30'
p1273
aS'608'
p1274
aS'913'
p1275
aS'684'
p1276
aS'542'
p1277
aS'37'
p1278
aS'582'
p1279
aS'1'
p1280
aS'99'
p1281
aS'412'
p1282
aS'1160'
p1283
aS'1018'
p1284
aS'605'
p1285
aS'445'
p1286
aS'80'
p1287
aS'955'
p1288
aS'543'
p1289
aS'927'
p1290
aS'298'
p1291
aS'603'
p1292
aS'1241'
p1293
aS'58'
p1294
aS'419'
p1295
aS'231'
p1296
aS'724'
p1297
aS'368'
p1298
aS'1008'
p1299
aS'520'
p1300
aS'1215'
p1301
aS'233'
p1302
aS'127'
p1303
aS'1181'
p1304
aS'669'
p1305
aS'585'
p1306
aS'914'
p1307
aS'575'
p1308
aS'983'
p1309
aS'985'
p1310
aS'421'
p1311
aS'87'
p1312
aS'629'
p1313
aS'902'
p1314
aS'113'
p1315
aS'1190'
p1316
aS'25'
p1317
aS'1256'
p1318
aS'1109'
p1319
aS'1081'
p1320
aS'1179'
p1321
aS'790'
p1322
aS'1019'
p1323
aS'773'
p1324
aS'252'
p1325
aS'657'
p1326
aS'108'
p1327
aS'1034'
p1328
aS'358'
p1329
aS'848'
p1330
aS'4'
p1331
aS'751'
p1332
aS'300'
p1333
aS'770'
p1334
aS'1035'
p1335
aS'443'
p1336
aS'255'
p1337
aS'454'
p1338
aS'116'
p1339
aS'508'
p1340
aS'951'
p1341
aS'695'
p1342
aS'339'
p1343
aS'757'
p1344
aS'1041'
p1345
aS'187'
p1346
aS'493'
p1347
aS'220'
p1348
aS'411'
p1349
aS'750'
p1350
aS'912'
p1351
aS'1174'
p1352
aS'501'
p1353
aS'878'
p1354
aS'436'
p1355
aS'689'
p1356
aS'278'
p1357
aS'598'
p1358
aS'883'
p1359
aS'8'
p1360
aS'765'
p1361
aS'280'
p1362
aS'69'
p1363
aS'234'
p1364
aS'581'
p1365
aS'659'
p1366
aS'444'
p1367
aS'1050'
p1368
aS'465'
p1369
aS'204'
p1370
aS'174'
p1371
aS'661'
p1372
aS'63'
p1373
aS'518'
p1374
aS'226'
p1375
aS'590'
p1376
aS'655'
p1377
aS'180'
p1378
aS'503'
p1379
aS'540'
p1380
aS'1104'
p1381
aS'786'
p1382
aS'946'
p1383
aS'88'
p1384
aS'470'
p1385
aS'225'
p1386
aS'860'
p1387
aS'211'
p1388
aS'499'
p1389
aS'945'
p1390
aS'622'
p1391
aS'1211'
p1392
aS'588'
p1393
aS'1161'
p1394
aS'1219'
p1395
aS'807'
p1396
aS'341'
p1397
aS'656'
p1398
aS'498'
p1399
aS'618'
p1400
aS'1231'
p1401
aS'680'
p1402
aS'70'
p1403
aS'1133'
p1404
aS'380'
p1405
aS'834'
p1406
aS'1218'
p1407
aS'1137'
p1408
aS'1141'
p1409
aS'899'
p1410
aS'1026'
p1411
aS'1013'
p1412
aS'126'
p1413
aS'866'
p1414
aS'970'
p1415
aS'706'
p1416
aS'456'
p1417
aS'662'
p1418
aS'645'
p1419
aS'796'
p1420
aS'2'
p1421
aS'390'
p1422
aS'313'
p1423
aS'535'
p1424
aS'1002'
p1425
aS'347'
p1426
aS'1259'
p1427
aS'389'
p1428
aS'353'
p1429
aS'400'
p1430
aS'273'
p1431
aS'457'
p1432
aS'713'
p1433
aS'49'
p1434
aS'340'
p1435
aS'496'
p1436
aS'935'
p1437
aS'1006'
p1438
aS'285'
p1439
aS'23'
p1440
aS'145'
p1441
aS'203'
p1442
aS'76'
p1443
aS'283'
p1444
aS'437'
p1445
aS'714'
p1446
aS'344'
p1447
aS'1072'
p1448
aS'12'
p1449
aS'266'
p1450
aS'409'
p1451
aS'693'
p1452
aS'137'
p1453
aS'544'
p1454
aS'776'
p1455
aS'644'
p1456
aS'1136'
p1457
aS'1145'
p1458
aS'523'
p1459
aS'1184'
p1460
aS'919'
p1461
aS'1101'
p1462
aS'38'
p1463
aS'643'
p1464
aS'1029'
p1465
aS'181'
p1466
aS'505'
p1467
aS'1073'
p1468
aS'1028'
p1469
aS'98'
p1470
aS'717'
p1471
aS'186'
p1472
aS'705'
p1473
aS'62'
p1474
aS'896'
p1475
aS'222'
p1476
aS'854'
p1477
aS'335'
p1478
aS'681'
p1479
aS'119'
p1480
aS'315'
p1481
aS'1069'
p1482
aS'40'
p1483
aS'328'
p1484
aS'173'
p1485
aS'478'
p1486
aS'151'
p1487
aS'653'
p1488
aS'831'
p1489
aS'789'
p1490
aS'822'
p1491
aS'469'
p1492
aS'611'
p1493
aS'262'
p1494
aS'20'
p1495
aS'511'
p1496
aS'892'
p1497
aS'510'
p1498
aS'802'
p1499
aS'1146'
p1500
aS'989'
p1501
aS'576'
p1502
aS'1059'
p1503
aS'284'
p1504
aS'374'
p1505
aS'138'
p1506
aS'881'
p1507
aS'907'
p1508
aS'227'
p1509
aS'148'
p1510
aS'164'
p1511
aS'517'
p1512
aS'207'
p1513
aS'531'
p1514
aS'698'
p1515
aS'110'
p1516
aS'199'
p1517
aS'1052'
p1518
aS'666'
p1519
aS'34'
p1520
aS'92'
p1521
aS'877'
p1522
aS'392'
p1523
aS'177'
p1524
aS'1048'
p1525
aS'327'
p1526
aS'871'
p1527
aS'1216'
p1528
aS'771'
p1529
aS'210'
p1530
aS'825'
p1531
aS'602'
p1532
aS'352'
p1533
aS'11'
p1534
aS'319'
p1535
aS'303'
p1536
aS'125'
p1537
aS'1024'
p1538
aS'959'
p1539
aS'637'
p1540
aS'573'
p1541
aS'580'
p1542
aS'956'
p1543
aS'293'
p1544
aS'19'
p1545
aS'720'
p1546
aS'1169'
p1547
aS'620'
p1548
aS'957'
p1549
aS'349'
p1550
aS'135'
p1551
aS'89'
p1552
aS'492'
p1553
aS'1070'
p1554
aS'244'
p1555
aS'696'
p1556
aS'373'
p1557
aS'157'
p1558
aS'359'
p1559
aS'1163'
p1560
aS'815'
p1561
aS'933'
p1562
aS'238'
p1563
aS'420'
p1564
aS'847'
p1565
aS'762'
p1566
aS'1037'
p1567
aS'240'
p1568
aS'44'
p1569
aS'1135'
p1570
aS'276'
p1571
aS'323'
p1572
aS'550'
p1573
aS'994'
p1574
aS'154'
p1575
aS'551'
p1576
aS'1103'
p1577
aS'931'
p1578
aS'182'
p1579
aS'1189'
p1580
aS'31'
p1581
aS'974'
p1582
aS'363'
p1583
aS'1261'
p1584
aS'964'
p1585
aS'787'
p1586
aS'103'
p1587
aS'1120'
p1588
aS'538'
p1589
aS'287'
p1590
aS'1220'
p1591
aS'506'
p1592
aS'155'
p1593
aS'755'
p1594
aS'362'
p1595
aS'567'
p1596
aS'1031'
p1597
aS'915'
p1598
aS'47'
p1599
aS'932'
p1600
aS'816'
p1601
aS'980'
p1602
aS'625'
p1603
aS'1209'
p1604
aS'338'
p1605
aS'16'
p1606
aS'539'
p1607
aS'221'
p1608
aS'1233'
p1609
aS'988'
p1610
aS'1118'
p1611
aS'247'
p1612
aS'632'
p1613
aS'1121'
p1614
aS'1110'
p1615
aS'1098'
p1616
aS'5'
p1617
aS'760'
p1618
aS'1088'
p1619
aS'461'
p1620
aS'1264'
p1621
aS'258'
p1622
aS'109'
p1623
aS'981'
p1624
aS'691'
p1625
aS'646'
p1626
aS'996'
p1627
aS'424'
p1628
aS'171'
p1629
aS'745'
p1630
aS'1011'
p1631
aS'73'
p1632
aS'428'
p1633
aS'274'
p1634
aS'601'
p1635
aS'692'
p1636
aS'527'
p1637
aS'1155'
p1638
aS'806'
p1639
aS'462'
p1640
aS'295'
p1641
aS'120'
p1642
aS'829'
p1643
aS'736'
p1644
aS'1237'
p1645
aS'101'
p1646
aS'761'
p1647
aS'649'
p1648
aS'702'
p1649
aS'568'
p1650
aS'146'
p1651
aS'1054'
p1652
aS'142'
p1653
aS'356'
p1654
aS'1252'
p1655
aS'704'
p1656
aS'895'
p1657
aS'1251'
p1658
aS'161'
p1659
aS'153'
p1660
aS'856'
p1661
aS'859'
p1662
aS'958'
p1663
aS'1142'
p1664
aS'117'
p1665
aS'589'
p1666
aS'43'
p1667
aS'1247'
p1668
aS'256'
p1669
aS'904'
p1670
aS'984'
p1671
aS'67'
p1672
aS'1023'
p1673
aS'1255'
p1674
aS'333'
p1675
aS'975'
p1676
aS'185'
p1677
aS'183'
p1678
aS'388'
p1679
aS'467'
p1680
aS'1044'
p1681
aS'122'
p1682
aS'1022'
p1683
aS'709'
p1684
aS'121'
p1685
aS'1162'
p1686
aS'699'
p1687
aS'812'
p1688
aS'560'
p1689
aS'1206'
p1690
aS'1242'
p1691
aS'494'
p1692
aS'1238'
p1693
aS'292'
p1694
aS'1124'
p1695
aS'1153'
p1696
aS'599'
p1697
aS'950'
p1698
aS'1005'
p1699
aS'1150'
p1700
aS'885'
p1701
aS'166'
p1702
aS'891'
p1703
aS'743'
p1704
aS'727'
p1705
aS'873'
p1706
aS'635'
p1707
aS'159'
p1708
aS'553'
p1709
aS'397'
p1710
aS'1080'
p1711
aS'746'
p1712
aS'723'
p1713
aS'94'
p1714
aS'290'
p1715
aS'387'
p1716
aS'434'
p1717
aS'39'
p1718
aS'733'
p1719
aS'759'
p1720
aS'114'
p1721
aS'673'
p1722
aS'565'
p1723
aS'239'
p1724
aS'861'
p1725
aS'793'
p1726
aS'905'
p1727
aS'45'
p1728
aS'1063'
p1729
aS'1152'
p1730
aS'402'
p1731
aS'1143'
p1732
aS'837'
p1733
aS'579'
p1734
aS'51'
p1735
aS'430'
p1736
aS'963'
p1737
aS'711'
p1738
aS'728'
p1739
aS'482'
p1740
aS'1076'
p1741
aS'416'
p1742
aS'940'
p1743
aS'849'
p1744
aS'690'
p1745
aS'596'
p1746
aS'219'
p1747
aS'586'
p1748
aS'739'
p1749
aS'906'
p1750
aS'55'
p1751
aS'726'
p1752
aS'1187'
p1753
aS'846'
p1754
aS'1172'
p1755
aS'330'
p1756
aS'772'
p1757
aS'326'
p1758
aS'477'
p1759
aS'65'
p1760
aS'604'
p1761
aS'1064'
p1762
aS'446'
p1763
aS'808'
p1764
aS'939'
p1765
aS'998'
p1766
aS'320'
p1767
aS'1066'
p1768
aS'296'
p1769
aS'90'
p1770
aS'401'
p1771
aS'336'
p1772
aS'196'
p1773
aS'41'
p1774
aS'60'
p1775
aS'976'
p1776
aS'941'
p1777
aS'992'
p1778
aS'558'
p1779
aS'1119'
p1780
aS'215'
p1781
aS'487'
p1782
aS'61'
p1783
aS'1196'
p1784
aS'270'
p1785
aS'845'
p1786
aS'48'
p1787
aS'500'
p1788
aS'1227'
p1789
aS'452'
p1790
aS'131'
p1791
aS'1232'
p1792
aS'821'
p1793
aS'1130'
p1794
aS'1228'
p1795
aS'1068'
p1796
aS'308'
p1797
aS'1096'
p1798
aS'426'
p1799
aS'175'
p1800
aS'1049'
p1801
aS'170'
p1802
aS'316'
p1803
aS'9'
p1804
aS'753'
p1805
aS'882'
p1806
aS'697'
p1807
aS'325'
p1808
aS'804'
p1809
aS'398'
p1810
aS'404'
p1811
aS'900'
p1812
aS'288'
p1813
aS'1223'
p1814
aS'707'
p1815
aS'149'
p1816
aS'245'
p1817
aS'265'
p1818
aS'609'
p1819
aS'480'
p1820
aS'668'
p1821
aS'944'
p1822
aS'703'
p1823
aS'56'
p1824
aS'321'
p1825
aS'112'
p1826
aS'52'
p1827
aS'1128'
p1828
aS'533'
p1829
aS'652'
p1830
aS'1021'
p1831
aS'735'
p1832
aS'366'
p1833
aS'1246'
p1834
aS'969'
p1835
aS'1089'
p1836
aS'923'
p1837
aS'621'
p1838
aS'193'
p1839
aS'107'
p1840
aS'1229'
p1841
aS'1210'
p1842
aS'1198'
p1843
aS'1015'
p1844
aS'272'
p1845
aS'880'
p1846
aS'312'
p1847
aS'1010'
p1848
aS'18'
p1849
aS'237'
p1850
aS'884'
p1851
aS'841'
p1852
aS'361'
p1853
aS'1078'
p1854
aS'369'
p1855
aS'209'
p1856
aS'1260'
p1857
aS'507'
p1858
aS'982'
p1859
aS'281'
p1860
aS'147'
p1861
aS'348'
p1862
aS'962'
p1863
aS'995'
p1864
aS'304'
p1865
aS'827'
p1866
aS'158'
p1867
aS'991'
p1868
aS'79'
p1869
aS'783'
p1870
aS'953'
p1871
aS'191'
p1872
aS'920'
p1873
aS'835'
p1874
aS'497'
p1875
aS'826'
p1876
aS'314'
p1877
aS'35'
p1878
aS'965'
p1879
aS'453'
p1880
aS'27'
p1881
aS'642'
p1882
aS'206'
p1883
aS'721'
p1884
aS'1224'
p1885
aS'466'
p1886
aS'1062'
p1887
aS'105'
p1888
aS'1250'
p1889
aS'1090'
p1890
aS'1180'
p1891
aS'491'
p1892
aS'332'
p1893
aS'1001'
p1894
aS'1205'
p1895
aS'584'
p1896
aS'1067'
p1897
aS'916'
p1898
aS'447'
p1899
aS'910'
p1900
aS'619'
p1901
aS'223'
p1902
aS'594'
p1903
aS'1085'
p1904
aS'1157'
p1905
aS'1134'
p1906
aS'74'
p1907
aS'1151'
p1908
aS'515'
p1909
aS'414'
p1910
aS'104'
p1911
aS'867'
p1912
aS'671'
p1913
aS'178'
p1914
aS'64'
p1915
aS'54'
p1916
aS'942'
p1917
aS'432'
p1918
aS'640'
p1919
aS'767'
p1920
aS'1225'
p1921
aS'651'
p1922
aS'297'
p1923
aS'384'
p1924
aS'351'
p1925
aS'152'
p1926
aS'1003'
p1927
aS'251'
p1928
aS'819'
p1929
aS'971'
p1930
aS'631'
p1931
aS'795'
p1932
aS'853'
p1933
aS'50'
p1934
aS'749'
p1935
aS'1051'
p1936
aS'317'
p1937
aS'379'
p1938
aS'732'
p1939
aS'406'
p1940
aS'823'
p1941
aS'552'
p1942
aS'978'
p1943
aS'1144'
p1944
aS'805'
p1945
aS'949'
p1946
aS'737'
p1947
aS'360'
p1948
aS'163'
p1949
aS'1030'
p1950
aS'754'
p1951
aS'1032'
p1952
aS'1004'
p1953
aS'433'
p1954
aS'650'
p1955
aS'246'
p1956
aS'1204'
p1957
aS'1236'
p1958
aS'595'
p1959
aS'869'
p1960
aS'606'
p1961
aS'587'
p1962
aS'1125'
p1963
aS'124'
p1964
aS'607'
p1965
aS'855'
p1966
aS'630'
p1967
aS'862'
p1968
aS'427'
p1969
aS'1249'
p1970
aS'888'
p1971
aS'833'
p1972
aS'968'
p1973
aS'1235'
p1974
aS'820'
p1975
aS'217'
p1976
aS'1039'
p1977
aS'610'
p1978
aS'190'
p1979
aS'172'
p1980
aS'647'
p1981
aS'1243'
p1982
aS'612'
p1983
aS'1106'
p1984
aS'663'
p1985
aS'1012'
p1986
aS'243'
p1987
aS'377'
p1988
aS'224'
p1989
aS'874'
p1990
aS'977'
p1991
aS'391'
p1992
aS'111'
p1993
aS'756'
p1994
aS'768'
p1995
aS'408'
p1996
aS'677'
p1997
aS'952'
p1998
aS'615'
p1999
aS'667'
p2000
aS'17'
p2001
aS'355'
p2002
aS'1170'
p2003
aS'752'
p2004
aS'372'
p2005
aS'626'
p2006
aS'102'
p2007
aS'1060'
p2008
aS'614'
p2009
aS'129'
p2010
aS'139'
p2011
aS'616'
p2012
aS'489'
p2013
aS'490'
p2014
aS'648'
p2015
aS'566'
p2016
aS'3'
p2017
aS'75'
p2018
aS'893'
p2019
aS'6'
p2020
aS'263'
p2021
aS'1212'
p2022
aS'504'
p2023
aS'617'
p2024
aS'870'
p2025
aS'731'
p2026
aS'160'
p2027
aS'249'
p2028
aS'132'
p2029
aS'286'
p2030
aS'429'
p2031
aS'169'
p2032
aS'1016'
p2033
aS'639'
p2034
aS'908'
p2035
aS'875'
p2036
aS'525'
p2037
aS'271'
p2038
aS'440'
p2039
aS'886'
p2040
aS'911'
p2041
aS'189'
p2042
aS'1178'
p2043
aS'100'
p2044
aS'342'
p2045
aS'832'
p2046
aS'734'
p2047
aS'1248'
p2048
aS'10'
p2049
aS'1131'
p2050
aS'1168'
p2051
aS'938'
p2052
aS'686'
p2053
aS'364'
p2054
aS'463'
p2055
aS'415'
p2056
aS'936'
p2057
aS'302'
p2058
aS'42'
p2059
aS'188'
p2060
aS'532'
p2061
aS'792'
p2062
aS'375'
p2063
aS'1217'
p2064
aS'1116'
p2065
aS'1095'
p2066
aS'383'
p2067
aS'1097'
p2068
aS'311'
p2069
aS'370'
p2070
aS'438'
p2071
aS'554'
p2072
aS'1193'
p2073
aS'1033'
p2074
aS'405'
p2075
aS'1213'
p2076
aS'670'
p2077
aS'378'
p2078
aS'376'
p2079
aS'291'
p2080
aS'850'
p2081
aS'106'
p2082
aS'459'
p2083
aS'613'
p2084
aS'903'
p2085
aS'563'
p2086
aS'708'
p2087
aS'260'
p2088
aS'354'
p2089
aS'623'
p2090
aS'468'
p2091
aS'889'
p2092
aS'628'
p2093
aS'872'
p2094
aS'1057'
p2095
aS'800'
p2096
aS'476'
p2097
aS'418'
p2098
aS'1009'
p2099
aS'534'
p2100
aS'700'
p2101
aS'307'
p2102
aS'537'
p2103
aS'130'
p2104
aS'1111'
p2105
aS'96'
p2106
aS'474'
p2107
aS'718'
p2108
aS'486'
p2109
aS'961'
p2110
aS'1082'
p2111
aS'954'
p2112
aS'694'
p2113
aS'548'
p2114
aS'934'
p2115
aS'1226'
p2116
aS'549'
p2117
aS'431'
p2118
aS'1167'
p2119
aS'973'
p2120
aS'682'
p2121
aS'1074'
p2122
aS'72'
p2123
aS'979'
p2124
aS'1139'
p2125
aS'179'
p2126
aS'455'
p2127
aS'541'
p2128
aS'1148'
p2129
aS'229'
p2130
aS'687'
p2131
aS'519'
p2132
aS'924'
p2133
aS'811'
p2134
aS'184'
p2135
aS'95'
p2136
aS'1257'
p2137
aS'269'
p2138
aS'1117'
p2139
aS'318'
p2140
aS'555'
p2141
aS'654'
p2142
aS'683'
p2143
aS'324'
p2144
aS'294'
p2145
aS'1112'
p2146
aS'261'
p2147
aS'216'
p2148
aS'1154'
p2149
aS'1156'
p2150
aS'1254'
p2151
aS'331'
p2152
aS'716'
p2153
aS'68'
p2154
aS'1123'
p2155
aS'701'
p2156
aS'627'
p2157
aS'268'
p2158
aS'334'
p2159
aS'299'
p2160
aS'357'
p2161
aS'778'
p2162
aS'1149'
p2163
aS'22'
p2164
aS'830'
p2165
aS'876'
p2166
aS'641'
p2167
aS'1042'
p2168
aS'423'
p2169
aS'396'
p2170
aS'228'
p2171
aS'448'
p2172
aS'1094'
p2173
aS'676'
p2174
aS'784'
p2175
aS'840'
p2176
aS'214'
p2177
aS'818'
p2178
aS'464'
p2179
aS'960'
p2180
aS'46'
p2181
aS'1025'
p2182
aS'194'
p2183
aS'967'
p2184
aS'993'
p2185
aS'748'
p2186
aS'729'
p2187
aS'250'
p2188
aS'236'
p2189
aS'851'
p2190
aS'1056'
p2191
aS'636'
p2192
aS'1203'
p2193
aS'205'
p2194
aS'1047'
p2195
aS'150'
p2196
aS'672'
p2197
aS'894'
p2198
aS'1043'
p2199
aS'1053'
p2200
aS'1177'
p2201
aS'481'
p2202
aS'742'
p2203
aS'679'
p2204
aS'747'
p2205
aS'346'
p2206
aS'842'
p2207
aS'57'
p2208
aS'943'
p2209
aS'937'
p2210
aS'725'
p2211
aS'1201'
p2212
aS'7'
p2213
aS'242'
p2214
aS'1197'
p2215
aS'774'
p2216
aS'814'
p2217
aS'675'
p2218
aS'71'
p2219
aS'1166'
p2220
aS'801'
p2221
aS'200'
p2222
aS'306'
p2223
aS'557'
p2224
aS'547'
p2225
aS'741'
p2226
aS'1114'
p2227
aS'382'
p2228
aS'1055'
p2229
aS'15'
p2230
aS'213'
p2231
aS'839'
p2232
aS'660'
p2233
aS'1000'
p2234
aS'301'
p2235
aS'1245'
p2236
aS'624'
p2237
aS'279'
p2238
aS'997'
p2239
aS'133'
p2240
aS'1183'
p2241
aS'144'
p2242
aS'195'
p2243
aS'1077'
p2244
aS'93'
p2245
aS'329'
p2246
aS'1122'
p2247
aS'403'
p2248
aS'583'
p2249
aS'208'
p2250
aS'730'
p2251
aS'578'
p2252
aS'781'
p2253
aS'1199'
p2254
aS'1194'
p2255
aS'638'
p2256
aS'824'
p2257
aS'536'
p2258
aS'836'
p2259
aS'371'
p2260
aS'1065'
p2261
aS'1105'
p2262
aS'688'
p2263
aS'685'
p2264
aS'488'
p2265
aS'799'
p2266
aS'785'
p2267
aS'986'
p2268
aS'809'
p2269
aS'561'
p2270
aS'78'
p2271
aS'202'
p2272
aS'569'
p2273
aS'13'
p2274
aS'168'
p2275
aS'407'
p2276
aS'439'
p2277
aS'502'
p2278
aS'764'
p2279
aS'36'
p2280
aS'843'
p2281
aS'779'
p2282
aS'1239'
p2283
aS'1127'
p2284
aS'769'
p2285
aS'21'
p2286
aS'1173'
p2287
aS'1071'
p2288
aS'844'
p2289
aS'451'
p2290
aS'367'
p2291
aS'143'
p2292
aS'928'
p2293
aS'450'
p2294
aS'1185'
p2295
aS'82'
p2296
aS'897'
p2297
aS'715'
p2298
aS'343'
p2299
aS'259'
p2300
aS'810'
p2301
aS'483'
p2302
aS'530'
p2303
aS'1230'
p2304
aS'1159'
p2305
aS'32'
p2306
aS'513'
p2307
aS'1171'
p2308
aS'254'
p2309
aS'600'
p2310
aS'926'
p2311
aS'813'
p2312
aS'674'
p2313
aS'852'
p2314
aS'140'
p2315
aS'712'
p2316
aS'141'
p2317
aS'1126'
p2318
aS'309'
p2319
aS'248'
p2320
aS'592'
p2321
aS'1040'
p2322
aS'658'
p2323
aS'966'
p2324
aS'29'
p2325
aS'524'
p2326
aS'473'
p2327
aS'972'
p2328
aS'310'
p2329
aS'722'
p2330
aS'1061'
p2331
aS'289'
p2332
aS'282'
p2333
aS'516'
p2334
aS'381'
p2335
aS'394'
p2336
aS'521'
p2337
aS'1202'
p2338
aS'81'
p2339
aS'858'
p2340
aS'782'
p2341
aS'562'
p2342
aS'758'
p2343
aS'484'
p2344
aS'24'
p2345
aS'1100'
p2346
aS'66'
p2347
aS'156'
p2348
aS'990'
p2349
aS'59'
p2350
aS'1087'
p2351
aS'1253'
p2352
aS'305'
p2353
aS'1086'
p2354
aS'738'
p2355
aS'232'
p2356
aS'777'
p2357
aS'264'
p2358
aS'918'
p2359
aS'479'
p2360
aS'235'
p2361
aS'710'
p2362
aS'890'
p2363
aS'572'
p2364
aS'472'
p2365
aS'253'
p2366
aS'1108'
p2367
aS'1221'
p2368
aS'766'
p2369
aS'1165'
p2370
aS'633'
p2371
aS'422'
p2372
aS'230'
p2373
aS'1014'
p2374
aS'1182'
p2375
aS'123'
p2376
aS'1027'
p2377
aS'947'
p2378
aS'665'
p2379
aS'399'
p2380
aS'53'
p2381
aS'1200'
p2382
aS'512'
p2383
aS'197'
p2384
aS'176'
p2385
aS'1147'
p2386
aS'1107'
p2387
aS'84'
p2388
aS'165'
p2389
aS'798'
p2390
aS'775'
p2391
aS'828'
p2392
aS'28'
p2393
aS'241'
p2394
aS'794'
p2395
aS'435'
p2396
aS'417'
p2397
aS'803'
p2398
aS'395'
p2399
aS'593'
p2400
aS'410'
p2401
aS'393'
p2402
aS'780'
p2403
aS'529'
p2404
aS'442'
p2405
aS'1214'
p2406
aS'1092'
p2407
aS'1192'
p2408
aS'1240'
p2409
aS'1079'
p2410
aS'1138'
p2411
aS'597'
p2412
aS'1158'
p2413
aS'345'
p2414
aS'97'
p2415
aS'797'
p2416
aS'1084'
p2417
aS'1007'
p2418
aS'Jan.'
p2419
aS'Sage.'
p2420
aS'Wein.'
p2421
aS'Icar.'
p2422
aS'Scre.'
p2423
aS'Icar.'
p2424
aS'Mont.'
p2425
aS'Zeit.'
p2426
aS'RF'
p2427
aS'Magn.'
p2428
aS'ParC'
p2429
aS'Strand'
p2430
aS'FRun'
p2431
aS'Zeit.'
p2432
aS'Osci.'
p2433
aS'Palm'
p2434
aS'AL'
p2435
aS'Think'
p2436
aS'CGld'
p2437
aS'Lant'
p2438
aS'A23'
p2439
aS'Strand'
p2440
aS'BV'
p2441
aS'FRun'
p2442
aS'Plx.'
p2443
aS'FRun'
p2444
aS'NobP'
p2445
aS'Gold.'
p2446
aS'Emp.'
p2447
aS'CGld'
p2448
aS'NYer'
p2449
aS'FRun'
p2450
aS'SHB'
p2451
aS'Magn.'
p2452
aS'Think'
p2453
aS'Scre.'
p2454
aS'Icar.'
p2455
aS'ORF'
p2456
aS'Abr.'
p2457
aS'KL'
p2458
aS'Vita.'
p2459
aS'Argo.'
p2460
aS'IFC'
p2461
aS'ICir'
p2462
aS'Lions'
p2463
aS'RAtt.'
p2464
aS'Zipp.'
p2465
aS'TVC'
p2466
aS'Mira.'
p2467
aS'ETr.'
p2468
aS'Magn.'
p2469
aS'Roxie'
p2470
aS'IFC'
p2471
aS'Zeit.'
p2472
aS'Bal.'
p2473
aS'Think'
p2474
aS'Ston5'
p2475
aS'FRun'
p2476
aS'Lions'
p2477
aS'Arna'
p2478
aS'SPC'
p2479
aS'Kino'
p2480
aS'Strand'
p2481
aS'Shad.'
p2482
aS'JM'
p2483
aS'IFC'
p2484
aS'Abr.'
p2485
aS'SPC'
p2486
aS'Libre'
p2487
aS'Osci.'
p2488
aS'Jour'
p2489
aS'Moch.'
p2490
aS'PalT'
p2491
aS'PicH'
p2492
aS'Icar.'
p2493
aS'Slow'
p2494
aS'Think'
p2495
aS'7Art'
p2496
aS'Indic.'
p2497
aS'Gold.'
p2498
aS'7Art'
p2499
aS'Focus'
p2500
aS'FRun'
p2501
aS'FRun'
p2502
aS'Drct.'
p2503
aS'KL'
p2504
aS'Strand'
p2505
aS'Libre'
p2506
aS'IFC'
p2507
aS'NL'
p2508
aS'FA'
p2509
aS'Magn.'
p2510
aS'Avat.'
p2511
aS'FTrd.'
p2512
aS'Think'
p2513
aS'RM'
p2514
aS'NYer'
p2515
aS'IFC'
p2516
aS'AtRsk'
p2517
aS'LB'
p2518
aS'AL'
p2519
aS'ICir'
p2520
aS'KL'
p2521
aS'Trit'
p2522
aS'Magn.'
p2523
aS'Cohen'
p2524
aS'FRun'
p2525
aS'DLA'
p2526
aS'Bal.'
p2527
aS'Drif'
p2528
aS'Abr.'
p2529
aS'7Art'
p2530
aS'Hann.'
p2531
aS'Shad.'
p2532
aS'LucD.'
p2533
aS'Focus'
p2534
aS'ArtsA'
p2535
aS'Drft.'
p2536
aS'BTS'
p2537
aS'Cdgm.'
p2538
aS'CGld'
p2539
aS'Osci.'
p2540
aS'Bal.'
p2541
aS'Shad.'
p2542
aS'Par.'
p2543
aS'FRun'
p2544
aS'SD'
p2545
aS'WM'
p2546
aS'Vari.'
p2547
aS'Magic'
p2548
aS'SM'
p2549
aS'Abr.'
p2550
aS'KL'
p2551
aS'Truly'
p2552
aS'Zipp.'
p2553
aS'8X'
p2554
aS'Zeit.'
p2555
aS'Magn.'
p2556
aS'Magn.'
p2557
aS'AEF'
p2558
aS'Tara'
p2559
aS'Tila.'
p2560
aS'FRun'
p2561
aS'MBox'
p2562
aS'Fox'
p2563
aS'Focus'
p2564
aS'WMM'
p2565
aS'FRun'
p2566
aS'Truly'
p2567
aS'IFC'
p2568
aS'FRun'
p2569
aS'Icar.'
p2570
aS'NL'
p2571
aS'WIP'
p2572
aS'7Art'
p2573
aS'OcR'
p2574
aS'Vita.'
p2575
aS'FSC'
p2576
aS'Palm'
p2577
aS'FRun'
p2578
aS'Truly'
p2579
aS'SPC'
p2580
aS'Tara'
p2581
aS'Scre.'
p2582
aS'RAtt.'
p2583
aS'FRun'
p2584
aS'FRun'
p2585
aS'Osci.'
p2586
aS'Icar.'
p2587
aS'4&B'
p2588
aS'FRun'
p2589
aS'Castle'
p2590
aS'Castle'
p2591
aS'Vari.'
p2592
aS'Libre'
p2593
aS'Drft.'
p2594
aS'Avat.'
p2595
aS'RTWC'
p2596
aS'Vari.'
p2597
aS'Lorb.'
p2598
aS'FRun'
p2599
aS'Vari.'
p2600
aS'CP'
p2601
aS'Vari.'
p2602
aS'RM'
p2603
aS'WIP'
p2604
aS'FRun'
p2605
aS'AL'
p2606
aS'Vari.'
p2607
aS'Osci.'
p2608
aS'Think'
p2609
aS'Leis.'
p2610
aS'FStr.'
p2611
aS'FInd.'
p2612
aS'Shad.'
p2613
aS'SPC'
p2614
aS'GV'
p2615
aS'Pala.'
p2616
aS'SPC'
p2617
aS'FRun'
p2618
aS'KL'
p2619
aS'Kino'
p2620
aS'FKF'
p2621
aS'IFC'
p2622
aS'RM'
p2623
aS'Gold.'
p2624
aS'AL'
p2625
aS'Magn.'
p2626
aS'Magn.'
p2627
aS'Mira.'
p2628
aS'FKF'
p2629
aS'Proud'
p2630
aS'FM'
p2631
aS'BV'
p2632
aS'Magn.'
p2633
aS'Think'
p2634
aS'Wells'
p2635
aS'Magn.'
p2636
aS'Abr.'
p2637
aS'FRun'
p2638
aS'Zeit.'
p2639
aS'AM'
p2640
aS'Shad.'
p2641
aS'Magn.'
p2642
aS'BWP'
p2643
aS'Icar.'
p2644
aS'PDA'
p2645
aS'Magn.'
p2646
aS'Abr.'
p2647
aS'Focus'
p2648
aS'IFC'
p2649
aS'Gold.'
p2650
aS'FRun'
p2651
aS'FRun'
p2652
aS'Mira.'
p2653
aS'CGld'
p2654
aS'Roxie'
p2655
aS'LR'
p2656
aS'SPC'
p2657
aS'BV'
p2658
aS'IFC'
p2659
aS'KL'
p2660
aS'CGld'
p2661
aS'SeeT'
p2662
aS'CThnk'
p2663
aS'Arth.'
p2664
aS'Arth.'
p2665
aS'MGM'
p2666
aS'Kino'
p2667
aS'Uni.'
p2668
aS'Bal.'
p2669
aS'SPC'
p2670
aS'Zeit.'
p2671
aS'FB'
p2672
aS'A23'
p2673
aS'ICir'
p2674
aS'CityL'
p2675
aS'IFC'
p2676
aS'SPC'
p2677
aS'IDP'
p2678
aS'Magn.'
p2679
aS'Libre'
p2680
aS'Bal.'
p2681
aS'FRun'
p2682
aS'TORG'
p2683
aS'LibE'
p2684
aS'Gold.'
p2685
aS'FRun'
p2686
aS'FRun'
p2687
aS'RTWC'
p2688
aS'LGF'
p2689
aS'Gold.'
p2690
aS'ICir'
p2691
aS'Kino'
p2692
aS'Oct.'
p2693
aS'Kino'
p2694
aS'Sab.'
p2695
aS'Wein.'
p2696
aS'Roxie'
p2697
aS'Strand'
p2698
aS'Magn.'
p2699
aS'Wells'
p2700
aS'Zeit.'
p2701
aS'Strand'
p2702
aS'ParV'
p2703
aS'Cow.'
p2704
aS'CityL'
p2705
aS'AAE'
p2706
aS'Mira.'
p2707
aS'MBox'
p2708
aS'Bal.'
p2709
aS'CF'
p2710
aS'FRun'
p2711
aS'IFC'
p2712
aS'IFC'
p2713
aS'Arro.'
p2714
aS'Zeit.'
p2715
aS'Strand'
p2716
aS'UA'
p2717
aS'SenA'
p2718
aS'Emr.'
p2719
aS'Mira.'
p2720
aS'Vari.'
p2721
aS'Indic.'
p2722
aS'Magn.'
p2723
aS'FRun'
p2724
aS'Palm'
p2725
aS'FRun'
p2726
aS'CGld'
p2727
aS'SPC'
p2728
aS'Palm'
p2729
aS'Libre'
p2730
aS'CGld'
p2731
aS'A23'
p2732
aS'Shad.'
p2733
aS'LGF'
p2734
aS'Gathr'
p2735
aS'Scre.'
p2736
aS'7Art'
p2737
aS'Wein.'
p2738
aS'Osci.'
p2739
aS'Magn.'
p2740
aS'TVC'
p2741
aS'SPC'
p2742
aS'FRun'
p2743
aS'LVR'
p2744
aS'KL'
p2745
aS'RAtt.'
p2746
aS'Zeit.'
p2747
aS'FA'
p2748
aS'Trit'
p2749
aS'AL'
p2750
aS'Think'
p2751
aS'IFC'
p2752
aS'Zeit.'
p2753
aS'IFC'
p2754
aS'Lvtt.'
p2755
aS'Libre'
p2756
aS'FRun'
p2757
aS'RAtt.'
p2758
aS'RAtt.'
p2759
aS'Kino'
p2760
aS'FRun'
p2761
aS'Magn.'
p2762
aS'Cn4'
p2763
aS'Purd.'
p2764
aS'Indic.'
p2765
aS'Think'
p2766
aS'Icar.'
p2767
aS'Libre'
p2768
aS'Vita.'
p2769
aS'Think'
p2770
aS'Scre.'
p2771
aS'CGld'
p2772
aS'FRun'
p2773
aS'FPR'
p2774
aS'First'
p2775
aS'Aliv'
p2776
aS'A23'
p2777
aS'Abr.'
p2778
aS'BV'
p2779
aS'CGld'
p2780
aS'Reel'
p2781
aS'Mira.'
p2782
aS'CityL'
p2783
aS'Argo.'
p2784
aS'CGld'
p2785
aS'FRun'
p2786
aS'Wells'
p2787
aS'AM'
p2788
aS'LGF'
p2789
aS'Bal.'
p2790
aS'Drft.'
p2791
aS'FRun'
p2792
aS'NGE'
p2793
aS'TFC'
p2794
aS'WB'
p2795
aS'LSF'
p2796
aS'Argo.'
p2797
aS'FRun'
p2798
aS'Roxie'
p2799
aS'BV'
p2800
aS'FRun'
p2801
aS'Reg.'
p2802
aS'Drft.'
p2803
aS'FRun'
p2804
aS'Da.'
p2805
aS'Mira.'
p2806
aS'L/Z'
p2807
aS'Vita.'
p2808
aS'Bal.'
p2809
aS'FInd.'
p2810
aS'Gold.'
p2811
aS'Indic.'
p2812
aS'Trib.'
p2813
aS'Libre'
p2814
aS'RTWC'
p2815
aS'IFC'
p2816
aS'EPr'
p2817
aS'FRun'
p2818
aS'Pala.'
p2819
aS'Shad.'
p2820
aS'CityL'
p2821
aS'DefA'
p2822
aS'Palm'
p2823
aS'Drft.'
p2824
aS'SPC'
p2825
aS'Shoot.'
p2826
aS'NLov.'
p2827
aS'FRun'
p2828
aS'Roxie'
p2829
aS'Cow.'
p2830
aS'ICir'
p2831
aS'ICir'
p2832
aS'Shad.'
p2833
aS'ICir'
p2834
aS'FRun'
p2835
aS'LGF'
p2836
aS'Think'
p2837
aS'Icar.'
p2838
aS'Vari.'
p2839
aS'Cdgm.'
p2840
aS'Arab'
p2841
aS'Magn.'
p2842
aS'Abr.'
p2843
aS'AF'
p2844
aS'MBox'
p2845
aS'CGld'
p2846
aS'Trib.'
p2847
aS'SPC'
p2848
aS'Shad.'
p2849
aS'Magn.'
p2850
aS'KL'
p2851
aS'A23'
p2852
aS'IFC'
p2853
aS'CGld'
p2854
aS'Mira.'
p2855
aS'Trib.'
p2856
aS'Libre'
p2857
aS'FRun'
p2858
aS'CM'
p2859
aS'PicH'
p2860
aS'Uni.'
p2861
aS'Zeit.'
p2862
aS'CP'
p2863
aS'FRun'
p2864
aS'Magn.'
p2865
aS'BMG'
p2866
aS'Oct.'
p2867
aS'Art.'
p2868
aS'Libre'
p2869
aS'Arth.'
p2870
aS'Magn.'
p2871
aS'Osci.'
p2872
aS'Bal.'
p2873
aS'Emr.'
p2874
aS'NFF'
p2875
aS'Icar.'
p2876
aS'Magn.'
p2877
aS'FRun'
p2878
aS'FRun'
p2879
aS'Mang.'
p2880
aS'Think'
p2881
aS'TTW'
p2882
aS'Indic.'
p2883
aS'Argo.'
p2884
aS'NYer'
p2885
aS'GMI'
p2886
aS'AL'
p2887
aS'NYer'
p2888
aS'Think'
p2889
aS'Think'
p2890
aS'RAtt.'
p2891
aS'MBox'
p2892
aS'IFC'
p2893
aS'Abr.'
p2894
aS'Argo.'
p2895
aS'Abr.'
p2896
aS'SPC'
p2897
aS'IM'
p2898
aS'FRun'
p2899
aS'IFC'
p2900
aS'SPC'
p2901
aS'Cohen'
p2902
aS'FRun'
p2903
aS'NGE'
p2904
aS'Osci.'
p2905
aS'RM'
p2906
aS'Art.'
p2907
aS'First'
p2908
aS'Kino'
p2909
aS'FRun'
p2910
aS'FoxS'
p2911
aS'Abr.'
p2912
aS'FRun'
p2913
aS'Lorb.'
p2914
aS'Lorb.'
p2915
aS'Osci.'
p2916
aS'Magn.'
p2917
aS'IFC'
p2918
aS'A23'
p2919
aS'FRun'
p2920
aS'AL'
p2921
aS'Palm'
p2922
aS'Think'
p2923
aS'Argo.'
p2924
aS'Icar.'
p2925
aS'Cow.'
p2926
aS'Mitro.'
p2927
aS'FRun'
p2928
aS'Vari.'
p2929
aS'Lions'
p2930
aS'Cdgm.'
p2931
aS'Slow'
p2932
aS'AL'
p2933
aS'Lions'
p2934
aS'CGld'
p2935
aS'Cn4'
p2936
aS'Libre'
p2937
aS'N/A'
p2938
aS'IFC'
p2939
aS'FRun'
p2940
aS'Zeit.'
p2941
aS'XL'
p2942
aS'Mira.'
p2943
aS'Koch'
p2944
aS'Cdgm.'
p2945
aS'IFC'
p2946
aS'Osci.'
p2947
aS'Pala.'
p2948
aS'Cmx.'
p2949
aS'OrionC'
p2950
aS'Zeit.'
p2951
aS'RTWC'
p2952
aS'SPC'
p2953
aS'FRun'
p2954
aS'Libre'
p2955
aS'PicH'
p2956
aS'SPC'
p2957
aS'Magn.'
p2958
aS'Libre'
p2959
aS'Vita.'
p2960
aS'Tost.'
p2961
aS'EOne'
p2962
aS'CP'
p2963
aS'WB'
p2964
aS'RM'
p2965
aS'Shad.'
p2966
aS'Hiqi'
p2967
aS'FRun'
p2968
aS'Vari.'
p2969
aS'WB'
p2970
aS'Gold.'
p2971
aS'FRun'
p2972
aS'ICir'
p2973
aS'Think'
p2974
aS'FRun'
p2975
aS'Argo.'
p2976
aS'FRun'
p2977
aS'Lum.'
p2978
aS'FRun'
p2979
aS'NYer'
p2980
aS'Emp.'
p2981
aS'KL'
p2982
aS'Pas.'
p2983
aS'Tara'
p2984
aS'WB'
p2985
aS'UA'
p2986
aS'LGF'
p2987
aS'FRun'
p2988
aS'Bal.'
p2989
aS'Think'
p2990
aS'Cow.'
p2991
aS'WOW'
p2992
aS'Gold.'
p2993
aS'Focus'
p2994
aS'ICir'
p2995
aS'Palm'
p2996
aS'7Art'
p2997
aS'BevP'
p2998
aS'IM'
p2999
aS'IFC'
p3000
aS'Osci.'
p3001
aS'NYer'
p3002
aS'ArcEnt'
p3003
aS'FRun'
p3004
aS'CWM'
p3005
aS'RM'
p3006
aS'PDA'
p3007
aS'NGE'
p3008
aS'SPC'
p3009
aS'Think'
p3010
aS'Lorb.'
p3011
aS'CitU'
p3012
aS'FRun'
p3013
aS'Open'
p3014
aS'Bal.'
p3015
aS'CGld'
p3016
aS'FRun'
p3017
aS'Saku.'
p3018
aS'Icar.'
p3019
aS'DR'
p3020
aS'Truly'
p3021
aS'Think'
p3022
aS'Focus'
p3023
aS'7Art'
p3024
aS'FRun'
p3025
aS'M&A'
p3026
aS'Icar.'
p3027
aS'IFC'
p3028
aS'Bal.'
p3029
aS'First'
p3030
aS'FRun'
p3031
aS'LGF'
p3032
aS'Wells'
p3033
aS'Think'
p3034
aS'FRun'
p3035
aS'Long Shot'
p3036
aS'Think'
p3037
aS'Think'
p3038
aS'Mira.'
p3039
aS'FRun'
p3040
aS'ICir'
p3041
aS'IFC'
p3042
aS'KE'
p3043
aS'Magn.'
p3044
aS'Lot47'
p3045
aS'PAc.'
p3046
aS'Wrin.'
p3047
aS'Magn.'
p3048
aS'FRun'
p3049
aS'ParV'
p3050
aS'FRun'
p3051
aS'SPC'
p3052
aS'Zeit.'
p3053
aS'Slam'
p3054
aS'NGE'
p3055
aS'FRun'
p3056
aS'FRun'
p3057
aS'Abr.'
p3058
aS'FM'
p3059
aS'B360'
p3060
aS'IFC'
p3061
aS'Truly'
p3062
aS'Mira.'
p3063
aS'WB'
p3064
aS'Side.'
p3065
aS'Prov.'
p3066
aS'RM'
p3067
aS'Lant'
p3068
aS'Nou'
p3069
aS'Kino'
p3070
aS'IFC'
p3071
aS'FRun'
p3072
aS'FRun'
p3073
aS'C/360'
p3074
aS'CGld'
p3075
aS'KL'
p3076
aS'PMKBNC'
p3077
aS'Velv.'
p3078
aS'WF'
p3079
aS'NYer'
p3080
aS'Osci.'
p3081
aS'IFC'
p3082
aS'Skyl.'
p3083
aS'Distrib.'
p3084
aS'Abr.'
p3085
aS'Think'
p3086
aS'KL'
p3087
aS'FRun'
p3088
aS'CP'
p3089
aS'Cow.'
p3090
aS'Kino'
p3091
aS'Bal.'
p3092
aS'ICir'
p3093
aS'Zeit.'
p3094
aS'Quix.'
p3095
aS'Magn.'
p3096
aS'Men.'
p3097
aS'IFC'
p3098
aS'Zeit.'
p3099
aS'KF'
p3100
aS'Magn.'
p3101
aS'Magn.'
p3102
aS'Zeit.'
p3103
aS'FRun'
p3104
aS'Vari.'
p3105
aS'BV'
p3106
aS'Arth.'
p3107
aS'IFC'
p3108
aS'SPC'
p3109
aS'MEnd'
p3110
aS'Roxie'
p3111
aS'Kino'
p3112
aS'FRun'
p3113
aS'IPos.'
p3114
aS'FRun'
p3115
aS'Pala.'
p3116
aS'Art.'
p3117
aS'FLM'
p3118
aS'MBox'
p3119
aS'David'
p3120
aS'Code'
p3121
aS'Strand'
p3122
aS'Trib.'
p3123
aS'Reg.'
p3124
aS'Bal.'
p3125
aS'FRun'
p3126
aS'BBFR'
p3127
aS'KL'
p3128
aS'Think'
p3129
aS'Osci.'
p3130
aS'RTWC'
p3131
aS'Wein.'
p3132
aS'Trit'
p3133
aS'FRun'
p3134
aS'SFI'
p3135
aS'Argo.'
p3136
aS'7Art'
p3137
aS'ICir'
p3138
aS'SPC'
p3139
aS'Vari.'
p3140
aS'PDF'
p3141
aS'RM'
p3142
aS'EOne'
p3143
aS'SPC'
p3144
aS'RM'
p3145
aS'MBox'
p3146
aS'Wein.'
p3147
aS'Bal.'
p3148
aS'Indic.'
p3149
aS'Magn.'
p3150
aS'KL'
p3151
aS'Reg.'
p3152
aS'Think'
p3153
aS'Icar.'
p3154
aS'Palm'
p3155
aS'Indic.'
p3156
aS'SmlP'
p3157
aS'CGld'
p3158
aS'FRun'
p3159
aS'Mont.'
p3160
aS'FRun'
p3161
aS'SPC'
p3162
aS'Apol.'
p3163
aS'BV'
p3164
aS'FRun'
p3165
aS'Slow'
p3166
aS'GFor.'
p3167
aS'Arth.'
p3168
aS'Strand'
p3169
aS'Hann.'
p3170
aS'Arth.'
p3171
aS'Libre'
p3172
aS'IFC'
p3173
aS'FRun'
p3174
aS'Think'
p3175
aS'FoxS'
p3176
aS'Mitro.'
p3177
aS'FRun'
p3178
aS'RTWC'
p3179
aS'ReelD'
p3180
aS'FRun'
p3181
aS'Zeit.'
p3182
aS'Maya'
p3183
aS'Over.'
p3184
aS'Zipp.'
p3185
aS'FRun'
p3186
aS'Abr.'
p3187
aS'Unco'
p3188
aS'Cdgm.'
p3189
aS'RTWC'
p3190
aS'Kino'
p3191
aS'Libre'
p3192
aS'SPC'
p3193
aS'Lions'
p3194
aS'ICir'
p3195
aS'TFA'
p3196
aS'SkyI'
p3197
aS'Gori.'
p3198
aS'Libre'
p3199
aS'Par.'
p3200
aS'SPC'
p3201
aS'Fabr.'
p3202
aS'BV'
p3203
aS'IFC'
p3204
aS'Org.'
p3205
aS'Indic.'
p3206
aS'PicH'
p3207
aS'KL'
p3208
aS'IDP'
p3209
aS'Zeit.'
p3210
aS'SPC'
p3211
aS'Slow'
p3212
aS'FRun'
p3213
aS'LGF'
p3214
aS'NYer'
p3215
aS'Zeit.'
p3216
aS'FRun'
p3217
aS'Fct.'
p3218
aS'CGld'
p3219
aS'Osci.'
p3220
aS'Free'
p3221
aS'Osci.'
p3222
aS'FRun'
p3223
aS'Koch'
p3224
aS'IFC'
p3225
aS'Avat.'
p3226
aS'Pala.'
p3227
aS'Magn.'
p3228
aS'Strand'
p3229
aS'Bal.'
p3230
aS'Icar.'
p3231
aS'ParC'
p3232
aS'SMP'
p3233
aS'Think'
p3234
aS'Zeit.'
p3235
aS'ICir'
p3236
aS'Tent.'
p3237
aS'Wells'
p3238
aS'Zeit.'
p3239
aS'APD/C'
p3240
aS'Skou'
p3241
aS'RAtt.'
p3242
aS'SPC'
p3243
aS'CalN'
p3244
aS'N/A'
p3245
aS'WarP'
p3246
aS'Icar.'
p3247
aS'7Art'
p3248
aS'Engel'
p3249
aS'Shad.'
p3250
aS'IFC'
p3251
aS'MBox'
p3252
aS'Arab'
p3253
aS'RAtt.'
p3254
aS'AM'
p3255
aS'Mitro.'
p3256
aS'Free'
p3257
aS'Koch'
p3258
aS'Cheap'
p3259
aS'AM'
p3260
aS'Shad.'
p3261
aS'Libre'
p3262
aS'7Art'
p3263
aS'Bal.'
p3264
aS'SPC'
p3265
aS'FRun'
p3266
aS'FRun'
p3267
aS'Zeit.'
p3268
aS'Pala.'
p3269
aS'Drft.'
p3270
aS'MBox'
p3271
aS'PDA'
p3272
aS'Rialto'
p3273
aS'Da.'
p3274
aS'Strand'
p3275
aS'Vari.'
p3276
aS'Truly'
p3277
aS'FRun'
p3278
aS'Magn.'
p3279
aS'WP'
p3280
aS'Zeit.'
p3281
aS'Reg.'
p3282
aS'Long Shot'
p3283
aS'DM'
p3284
aS'FRun'
p3285
aS'SPC'
p3286
aS'ICir'
p3287
aS'SD'
p3288
aS'PDA'
p3289
aS'P/FB'
p3290
aS'ATO'
p3291
aS'KL'
p3292
aS'Zeit.'
p3293
aS'Gathr'
p3294
aS'Think'
p3295
aS'Lorb.'
p3296
aS'MP'
p3297
aS'SD'
p3298
aS'FRun'
p3299
aS'Gold.'
p3300
aS'Palm'
p3301
aS'FRun'
p3302
aS'IntC'
p3303
aS'FB/Part.'
p3304
aS'FRun'
p3305
aS'Magn.'
p3306
aS'Vari.'
p3307
aS'ICir'
p3308
aS'WIP'
p3309
aS'IFC'
p3310
aS'SD'
p3311
aS'Indic.'
p3312
aS'Mira.'
p3313
aS'Magn.'
p3314
aS'WOWF'
p3315
aS'7Art'
p3316
aS'Libre'
p3317
aS'Gold.'
p3318
aS'WM'
p3319
aS'FRun'
p3320
aS'Una.'
p3321
aS'Docu.'
p3322
aS'MBox'
p3323
aS'Truly'
p3324
aS'Osci.'
p3325
aS'Think'
p3326
aS'IFC'
p3327
aS'SPC'
p3328
aS'B/F'
p3329
aS'FRun'
p3330
aS'EOne'
p3331
aS'Arab'
p3332
aS'Emr.'
p3333
aS'MBox'
p3334
aS'ICir'
p3335
aS'KE'
p3336
aS'NYer'
p3337
aS'Artma'
p3338
aS'Icar.'
p3339
aS'Strand'
p3340
aS'BV'
p3341
aS'Zeit.'
p3342
aS'Elep.'
p3343
aS'Zeit.'
p3344
aS'Crnth'
p3345
aS'Aloha'
p3346
aS'FL'
p3347
aS'Drft.'
p3348
aS'Libre'
p3349
aS'KMP'
p3350
aS'FRun'
p3351
aS'Vari.'
p3352
aS'Shad.'
p3353
aS'Cow.'
p3354
aS'TFA'
p3355
aS'Palm'
p3356
aS'Argo.'
p3357
aS'Zeit.'
p3358
aS'Zeit.'
p3359
aS'Zeit.'
p3360
aS'Palm'
p3361
aS'RAtt.'
p3362
aS'Palo'
p3363
aS'RAtt.'
p3364
aS'Bal.'
p3365
aS'FL'
p3366
aS'Osci.'
p3367
aS'FRun'
p3368
aS'Think'
p3369
aS'FRun'
p3370
aS'Reg.'
p3371
aS'Oct.'
p3372
aS'Org.'
p3373
aS'Truly'
p3374
aS'KL'
p3375
aS'KL'
p3376
aS'Shad.'
p3377
aS'IFC'
p3378
aS'NGE'
p3379
aS'Vari.'
p3380
aS'ICir'
p3381
aS'Rnd.'
p3382
aS'FRun'
p3383
aS'Argo.'
p3384
aS'IR'
p3385
aS'Abr.'
p3386
aS'Spa.'
p3387
aS'BV'
p3388
aS'Osci.'
p3389
aS'SPC'
p3390
aS'Rog.'
p3391
aS'RM'
p3392
aS'Rum.'
p3393
aS'CCx'
p3394
aS'CGld'
p3395
aS'TriS'
p3396
aS'LF'
p3397
aS'FRun'
p3398
aS'Argo.'
p3399
aS'CGld'
p3400
aS'Castle'
p3401
aS'Magn.'
p3402
aS'FRun'
p3403
aS'Abr.'
p3404
aS'Can.'
p3405
aS'Abr.'
p3406
aS'Cdgm.'
p3407
aS'B360'
p3408
aS'KL'
p3409
aS'HTR'
p3410
aS'Magn.'
p3411
aS'Cn4'
p3412
aS'Mira.'
p3413
aS'Castle'
p3414
aS'Bal.'
p3415
aS'Magn.'
p3416
aS'Icar.'
p3417
aS'CThnk'
p3418
aS'Arab'
p3419
aS'Osci.'
p3420
aS'IFC'
p3421
aS'Icar.'
p3422
aS'CF&SR'
p3423
aS'FRun'
p3424
aS'ParV'
p3425
aS'Palm'
p3426
aS'CGld'
p3427
aS'SPC'
p3428
aS'ICir'
p3429
aS'7Art'
p3430
aS'Koch'
p3431
aS'Osci.'
p3432
aS'IFC'
p3433
aS'DF'
p3434
aS'FInd.'
p3435
aS'FRun'
p3436
aS'RedE'
p3437
aS'FRun'
p3438
aS'Trib.'
p3439
aS'ICir'
p3440
aS'Zeit.'
p3441
aS'Trela'
p3442
aS'LGF'
p3443
aS'SF'
p3444
aS'IFC'
p3445
aS'SD'
p3446
aS'Cohen'
p3447
aS'ICir'
p3448
aS'KL'
p3449
aS'FRun'
p3450
aS'MBox'
p3451
aS'Icar.'
p3452
aS'FRun'
p3453
aS'Trit'
p3454
aS'Wein.'
p3455
aS'KL'
p3456
aS'BV'
p3457
aS'Indic.'
p3458
aS'Indic.'
p3459
aS'Pala.'
p3460
aS'SPC'
p3461
aS'Strand'
p3462
aS'RTWC'
p3463
aS'Koch'
p3464
aS'Vari.'
p3465
aS'Arab'
p3466
aS'Artma'
p3467
aS'FL'
p3468
aS'ParC'
p3469
aS'SD'
p3470
aS'AL'
p3471
aS'Vari.'
p3472
aS'ICir'
p3473
aS'SPC'
p3474
aS'Think'
p3475
aS'FRun'
p3476
aS'Mira.'
p3477
aS'Maya'
p3478
aS'Magn.'
p3479
aS'L/Z'
p3480
aS'Long Shot'
p3481
aS'SPC'
p3482
aS'Zeit.'
p3483
aS'Vari.'
p3484
aS'AL'
p3485
aS'Zeit.'
p3486
aS'FRun'
p3487
aS'Frnt.'
p3488
aS'Think'
p3489
aS'Lions'
p3490
aS'Mino.'
p3491
aS'ICir'
p3492
aS'CalN'
p3493
aS'Reg.'
p3494
aS'FDesk'
p3495
aS'7Art'
p3496
aS'TFC'
p3497
aS'Gold.'
p3498
aS'ICir'
p3499
aS'IFC'
p3500
aS'FRun'
p3501
aS'SPC'
p3502
aS'Mela'
p3503
aS'Argo.'
p3504
aS'Zeit.'
p3505
aS'Elep.'
p3506
aS'Mira.'
p3507
aS'Think'
p3508
aS'FRun'
p3509
aS'Zeit.'
p3510
aS'Life'
p3511
aS'Jet'
p3512
aS'Mile.'
p3513
aS'Argo.'
p3514
aS'Zeit.'
p3515
aS'NM'
p3516
aS'Zeit.'
p3517
aS'Long Shot'
p3518
aS'RAtt.'
p3519
aS'Zeit.'
p3520
aS'AL'
p3521
aS'NL'
p3522
aS'SD'
p3523
aS'Halo8'
p3524
aS'7Art'
p3525
aS'Wells'
p3526
aS'FRun'
p3527
aS'Par.'
p3528
aS'DCo.'
p3529
aS'Gram.'
p3530
aS'Free'
p3531
aS'A23'
p3532
aS'IFC'
p3533
aS'Zeit.'
p3534
aS'MBox'
p3535
aS'Mira.'
p3536
aS'FRun'
p3537
aS'Vari.'
p3538
aS'Free'
p3539
aS'InP'
p3540
aS'Think'
p3541
aS'MBox'
p3542
aS'SF'
p3543
aS'Mael.'
p3544
aS'Palm'
p3545
aS'Mira.'
p3546
aS'FRun'
p3547
aS'FRun'
p3548
aS'IFC'
p3549
aS'Anch.'
p3550
aS'Palm'
p3551
aS'Pala.'
p3552
aS'Emr.'
p3553
aS'Zeit.'
p3554
aS'Magn.'
p3555
aS'Shad.'
p3556
aS'Aliq.'
p3557
aS'Icar.'
p3558
aS'IFC'
p3559
aS'RTWC'
p3560
aS'Life'
p3561
aS'Indic.'
p3562
aS'KL'
p3563
aS'Wein.'
p3564
aS'SD'
p3565
aS'Magn.'
p3566
aS'Gold.'
p3567
aS'IFC'
p3568
aS'7Art'
p3569
aS'N/A'
p3570
aS'Lions'
p3571
aS'Zeit.'
p3572
aS'Zipp.'
p3573
aS'WHE'
p3574
aS'APD/C'
p3575
aS'ParV'
p3576
aS'Magn.'
p3577
aS'Truly'
p3578
aS'RFG'
p3579
aS'SPC'
p3580
aS'Palm'
p3581
aS'Gold.'
p3582
aS'ICir'
p3583
aS'Cow.'
p3584
aS'Tar.'
p3585
aS'FDesk'
p3586
aS'NYer'
p3587
aS'Emr.'
p3588
aS'Magn.'
p3589
aS'FRun'
p3590
aS'Vita.'
p3591
aS'OutF'
p3592
aS'Strand'
p3593
aS'FRun'
p3594
aS'Abr.'
p3595
aS'FRun'
p3596
aS'IFC'
p3597
aS'SPC'
p3598
aS'Wells'
p3599
aS'CGld'
p3600
aS'mTuck'
p3601
aS'10347'
p3602
aS'26859'
p3603
aS'88312'
p3604
aS'11573'
p3605
aS'183790'
p3606
aS'16506'
p3607
aS'11698'
p3608
aS'783969'
p3609
aS'100280'
p3610
aS'21152'
p3611
aS'318246'
p3612
aS'70685'
p3613
aS'19365'
p3614
aS'238260'
p3615
aS'18334'
p3616
aS'129988'
p3617
aS'8129'
p3618
aS'1174079'
p3619
aS'76211'
p3620
aS'97362'
p3621
aS'22887'
p3622
aS'21620'
p3623
aS'15428747'
p3624
aS'33144'
p3625
aS'3604'
p3626
aS'49852'
p3627
aS'3500'
p3628
aS'39819'
p3629
aS'99819'
p3630
aS'3909'
p3631
aS'114264'
p3632
aS'2970'
p3633
aS'20389'
p3634
aS'308575'
p3635
aS'2248'
p3636
aS'2992'
p3637
aS'6123'
p3638
aS'6206566'
p3639
aS'66680'
p3640
aS'19988'
p3641
aS'48700'
p3642
aS'89521'
p3643
aS'4593598'
p3644
aS'73171'
p3645
aS'119194771'
p3646
aS'1600145'
p3647
aS'157782'
p3648
aS'4674'
p3649
aS'11683'
p3650
aS'67433'
p3651
aS'138811'
p3652
aS'2200276'
p3653
aS'16136'
p3654
aS'89473'
p3655
aS'18654'
p3656
aS'274661'
p3657
aS'67665'
p3658
aS'1475'
p3659
aS'3178403'
p3660
aS'156000'
p3661
aS'439309'
p3662
aS'41468'
p3663
aS'205246'
p3664
aS'12095'
p3665
aS'100403'
p3666
aS'2485'
p3667
aS'426855'
p3668
aS'1200326'
p3669
aS'3709'
p3670
aS'51672'
p3671
aS'72073'
p3672
aS'19781'
p3673
aS'77016'
p3674
aS'13710'
p3675
aS'13670'
p3676
aS'155056'
p3677
aS'1763052'
p3678
aS'60509'
p3679
aS'20214'
p3680
aS'1332110'
p3681
aS'3500'
p3682
aS'7320323'
p3683
aS'949'
p3684
aS'6998'
p3685
aS'8350'
p3686
aS'3804'
p3687
aS'32677'
p3688
aS'11606'
p3689
aS'34837'
p3690
aS'373743'
p3691
aS'52986'
p3692
aS'1433319'
p3693
aS'10888'
p3694
aS'215185'
p3695
aS'25317'
p3696
aS'33449086'
p3697
aS'38773'
p3698
aS'273749'
p3699
aS'35397'
p3700
aS'10650'
p3701
aS'140000'
p3702
aS'369065'
p3703
aS'132160'
p3704
aS'1318449'
p3705
aS'105998'
p3706
aS'16400'
p3707
aS'46412'
p3708
aS'235659'
p3709
aS'38083'
p3710
aS'10524'
p3711
aS'667911'
p3712
aS'110617'
p3713
aS'507324'
p3714
aS'159294'
p3715
aS'38925'
p3716
aS'20013'
p3717
aS'4070'
p3718
aS'108814'
p3719
aS'21697'
p3720
aS'145088'
p3721
aS'47439'
p3722
aS'306140'
p3723
aS'68353'
p3724
aS'21507'
p3725
aS'25326071'
p3726
aS'36406'
p3727
aS'304052'
p3728
aS'2750064'
p3729
aS'422853'
p3730
aS'74421'
p3731
aS'52823'
p3732
aS'138991'
p3733
aS'10082'
p3734
aS'124294'
p3735
aS'567493'
p3736
aS'741557'
p3737
aS'52681'
p3738
aS'2962242'
p3739
aS'101270'
p3740
aS'450941'
p3741
aS'71176'
p3742
aS'53471'
p3743
aS'701278'
p3744
aS'108118'
p3745
aS'90000'
p3746
aS'7205'
p3747
aS'33312'
p3748
aS'16734'
p3749
aS'1755134'
p3750
aS'122742'
p3751
aS'453650'
p3752
aS'23828'
p3753
aS'533759'
p3754
aS'109107'
p3755
aS'16783'
p3756
aS'62186'
p3757
aS'2647'
p3758
aS'71716'
p3759
aS'4658'
p3760
aS'2363'
p3761
aS'30606'
p3762
aS'231574'
p3763
aS'53319'
p3764
aS'109427'
p3765
aS'62713'
p3766
aS'1719'
p3767
aS'49001'
p3768
aS'2672413'
p3769
aS'6044'
p3770
aS'193209'
p3771
aS'27253'
p3772
aS'2377'
p3773
aS'5724'
p3774
aS'5580'
p3775
aS'20386'
p3776
aS'11428'
p3777
aS'11882'
p3778
aS'1205273'
p3779
aS'23043'
p3780
aS'14566'
p3781
aS'44883'
p3782
aS'130441'
p3783
aS'52476'
p3784
aS'55824'
p3785
aS'31954'
p3786
aS'77437223'
p3787
aS'179507'
p3788
aS'256780'
p3789
aS'92234'
p3790
aS'12358'
p3791
aS'226189'
p3792
aS'604'
p3793
aS'179780'
p3794
aS'219672'
p3795
aS'172225'
p3796
aS'310154'
p3797
aS'130146'
p3798
aS'43593'
p3799
aS'3696196'
p3800
aS'232981'
p3801
aS'109983'
p3802
aS'18009'
p3803
aS'12139'
p3804
aS'296359'
p3805
aS'7720487'
p3806
aS'922872'
p3807
aS'578241'
p3808
aS'2401999'
p3809
aS'301027'
p3810
aS'144601'
p3811
aS'43583'
p3812
aS'227176'
p3813
aS'8738'
p3814
aS'19422319'
p3815
aS'318816'
p3816
aS'161182'
p3817
aS'46737'
p3818
aS'1067028'
p3819
aS'89169'
p3820
aS'34577'
p3821
aS'56214'
p3822
aS'5757'
p3823
aS'5386'
p3824
aS'100237'
p3825
aS'3642'
p3826
aS'19317'
p3827
aS'7426'
p3828
aS'4417674'
p3829
aS'56286'
p3830
aS'11344'
p3831
aS'696921'
p3832
aS'106771'
p3833
aS'8688'
p3834
aS'11396'
p3835
aS'1608277'
p3836
aS'42892'
p3837
aS'668228'
p3838
aS'45000'
p3839
aS'3041083'
p3840
aS'20521'
p3841
aS'471842'
p3842
aS'24090'
p3843
aS'239711'
p3844
aS'48969'
p3845
aS'1305915'
p3846
aS'256242'
p3847
aS'8939'
p3848
aS'4210938'
p3849
aS'246094'
p3850
aS'750805'
p3851
aS'116944'
p3852
aS'887918'
p3853
aS'53819'
p3854
aS'27595'
p3855
aS'33066'
p3856
aS'29273'
p3857
aS'122905'
p3858
aS'66032'
p3859
aS'334450'
p3860
aS'11536423'
p3861
aS'105054'
p3862
aS'20702'
p3863
aS'105422'
p3864
aS'31135'
p3865
aS'5384'
p3866
aS'13266'
p3867
aS'76398'
p3868
aS'9602'
p3869
aS'300880'
p3870
aS'200036'
p3871
aS'1044254'
p3872
aS'21577'
p3873
aS'20135'
p3874
aS'449707'
p3875
aS'901668'
p3876
aS'799856'
p3877
aS'101310'
p3878
aS'562218'
p3879
aS'94874'
p3880
aS'46109'
p3881
aS'1413480'
p3882
aS'592014'
p3883
aS'9955'
p3884
aS'52164'
p3885
aS'5505267'
p3886
aS'1712385'
p3887
aS'21816'
p3888
aS'177729'
p3889
aS'720074'
p3890
aS'10278'
p3891
aS'246649'
p3892
aS'22539'
p3893
aS'2483'
p3894
aS'35056'
p3895
aS'534100'
p3896
aS'28672'
p3897
aS'67966'
p3898
aS'220165'
p3899
aS'21576018'
p3900
aS'254190'
p3901
aS'270014'
p3902
aS'1209846'
p3903
aS'11538'
p3904
aS'15875'
p3905
aS'58829'
p3906
aS'77466'
p3907
aS'74631'
p3908
aS'16086'
p3909
aS'282448'
p3910
aS'11689053'
p3911
aS'42056'
p3912
aS'4337'
p3913
aS'62645'
p3914
aS'16050'
p3915
aS'225448'
p3916
aS'1109146'
p3917
aS'1727259'
p3918
aS'111205'
p3919
aS'8860'
p3920
aS'384955'
p3921
aS'46380'
p3922
aS'200238'
p3923
aS'849521'
p3924
aS'215026'
p3925
aS'4560'
p3926
aS'29976'
p3927
aS'18190'
p3928
aS'411184'
p3929
aS'155320'
p3930
aS'25489'
p3931
aS'36875'
p3932
aS'10622'
p3933
aS'396803'
p3934
aS'4038912'
p3935
aS'5869'
p3936
aS'306845'
p3937
aS'249565'
p3938
aS'87400'
p3939
aS'12959'
p3940
aS'857005'
p3941
aS'87370'
p3942
aS'7279'
p3943
aS'18254'
p3944
aS'696241'
p3945
aS'3541'
p3946
aS'5883132'
p3947
aS'14471'
p3948
aS'209618'
p3949
aS'577'
p3950
aS'15387'
p3951
aS'33300'
p3952
aS'1531154'
p3953
aS'6627'
p3954
aS'90287'
p3955
aS'292470'
p3956
aS'2338'
p3957
aS'106686'
p3958
aS'852676'
p3959
aS'38492'
p3960
aS'210752'
p3961
aS'80741'
p3962
aS'11026'
p3963
aS'19712'
p3964
aS'3779620'
p3965
aS'18239'
p3966
aS'29893'
p3967
aS'13957'
p3968
aS'61040'
p3969
aS'2870'
p3970
aS'237181'
p3971
aS'14444502'
p3972
aS'90066'
p3973
aS'486919'
p3974
aS'1677'
p3975
aS'13420'
p3976
aS'6717'
p3977
aS'382807'
p3978
aS'60291'
p3979
aS'6601'
p3980
aS'6983'
p3981
aS'7506'
p3982
aS'32011576'
p3983
aS'37731'
p3984
aS'7986'
p3985
aS'127257'
p3986
aS'476'
p3987
aS'353580'
p3988
aS'1433210'
p3989
aS'13931'
p3990
aS'46964'
p3991
aS'55518'
p3992
aS'12854'
p3993
aS'153148'
p3994
aS'771712'
p3995
aS'39192'
p3996
aS'12025'
p3997
aS'2475089'
p3998
aS'151779'
p3999
aS'309596'
p4000
aS'68243'
p4001
aS'46782'
p4002
aS'98548'
p4003
aS'4890'
p4004
aS'30662'
p4005
aS'127067'
p4006
aS'279558'
p4007
aS'1300682'
p4008
aS'28365'
p4009
aS'40182'
p4010
aS'1496'
p4011
aS'1577480'
p4012
aS'37111'
p4013
aS'55366'
p4014
aS'45255'
p4015
aS'79916'
p4016
aS'906666'
p4017
aS'9802'
p4018
aS'950675'
p4019
aS'217201'
p4020
aS'1124'
p4021
aS'45175'
p4022
aS'20584'
p4023
aS'1169'
p4024
aS'810454'
p4025
aS'869838'
p4026
aS'23959'
p4027
aS'23868'
p4028
aS'15941'
p4029
aS'5549'
p4030
aS'1310200'
p4031
aS'71471'
p4032
aS'4071700'
p4033
aS'1294'
p4034
aS'365422'
p4035
aS'20175'
p4036
aS'13683'
p4037
aS'2751988'
p4038
aS'11539'
p4039
aS'1088'
p4040
aS'241772'
p4041
aS'14400'
p4042
aS'677914'
p4043
aS'691880'
p4044
aS'179914'
p4045
aS'123482'
p4046
aS'10403'
p4047
aS'1252100'
p4048
aS'11550'
p4049
aS'44536'
p4050
aS'1283356'
p4051
aS'4630'
p4052
aS'46078'
p4053
aS'30156'
p4054
aS'82614'
p4055
aS'2996'
p4056
aS'1440'
p4057
aS'110577'
p4058
aS'1492'
p4059
aS'287198'
p4060
aS'6504'
p4061
aS'4956'
p4062
aS'68339'
p4063
aS'16413'
p4064
aS'12156'
p4065
aS'5095'
p4066
aS'21242'
p4067
aS'788896'
p4068
aS'20709'
p4069
aS'39359'
p4070
aS'41040'
p4071
aS'22359'
p4072
aS'59192'
p4073
aS'821046'
p4074
aS'86637'
p4075
aS'176647'
p4076
aS'8377'
p4077
aS'39115'
p4078
aS'41711'
p4079
aS'1671377'
p4080
aS'288312'
p4081
aS'183342'
p4082
aS'147844'
p4083
aS'4312735'
p4084
aS'40563'
p4085
aS'37745'
p4086
aS'1330894'
p4087
aS'50804'
p4088
aS'81432'
p4089
aS'405331'
p4090
aS'23728'
p4091
aS'32267'
p4092
aS'20169'
p4093
aS'3992189'
p4094
aS'9166'
p4095
aS'4960'
p4096
aS'167508'
p4097
aS'5532'
p4098
aS'26931'
p4099
aS'75881'
p4100
aS'3524826'
p4101
aS'150886'
p4102
aS'15504'
p4103
aS'44204'
p4104
aS'40919'
p4105
aS'115210'
p4106
aS'8445'
p4107
aS'156928'
p4108
aS'17744'
p4109
aS'25108'
p4110
aS'47211'
p4111
aS'68719'
p4112
aS'507941'
p4113
aS'71968'
p4114
aS'39975'
p4115
aS'20157'
p4116
aS'3336391'
p4117
aS'41271'
p4118
aS'3588'
p4119
aS'25752'
p4120
aS'4218'
p4121
aS'243550'
p4122
aS'34972'
p4123
aS'247159'
p4124
aS'117090'
p4125
aS'2875086'
p4126
aS'67500'
p4127
aS'9124'
p4128
aS'137042'
p4129
aS'30408'
p4130
aS'17921'
p4131
aS'12798'
p4132
aS'253311'
p4133
aS'9078'
p4134
aS'276497'
p4135
aS'1725141'
p4136
aS'170295'
p4137
aS'238924'
p4138
aS'603894'
p4139
aS'4198566'
p4140
aS'3119113'
p4141
aS'14350'
p4142
aS'17508'
p4143
aS'13080'
p4144
aS'84464'
p4145
aS'6684'
p4146
aS'518918'
p4147
aS'113276'
p4148
aS'3058527'
p4149
aS'3200'
p4150
aS'312751'
p4151
aS'25788'
p4152
aS'3753977'
p4153
aS'109057'
p4154
aS'1916'
p4155
aS'132596'
p4156
aS'1134358'
p4157
aS'1698'
p4158
aS'29316'
p4159
aS'6132'
p4160
aS'1884'
p4161
aS'8942'
p4162
aS'263107'
p4163
aS'7690'
p4164
aS'152791'
p4165
aS'739561'
p4166
aS'10171'
p4167
aS'776699'
p4168
aS'255364'
p4169
aS'24540079'
p4170
aS'38656'
p4171
aS'21525'
p4172
aS'46208'
p4173
aS'247948'
p4174
aS'30846'
p4175
aS'174197'
p4176
aS'166243'
p4177
aS'20318'
p4178
aS'289885'
p4179
aS'2214'
p4180
aS'44803'
p4181
aS'898317'
p4182
aS'384473'
p4183
aS'320486'
p4184
aS'66217'
p4185
aS'116381'
p4186
aS'51936'
p4187
aS'16901'
p4188
aS'45254'
p4189
aS'3291250'
p4190
aS'252788'
p4191
aS'1400591'
p4192
aS'3515061'
p4193
aS'6196'
p4194
aS'93000'
p4195
aS'53953'
p4196
aS'11562'
p4197
aS'40362'
p4198
aS'207473'
p4199
aS'1311'
p4200
aS'14974'
p4201
aS'7925'
p4202
aS'18938'
p4203
aS'62356'
p4204
aS'614138'
p4205
aS'1439232'
p4206
aS'1796'
p4207
aS'2648'
p4208
aS'3109'
p4209
aS'11750'
p4210
aS'312494'
p4211
aS'21579'
p4212
aS'257315'
p4213
aS'12038'
p4214
aS'13011160'
p4215
aS'417120'
p4216
aS'21429'
p4217
aS'26608'
p4218
aS'210975'
p4219
aS'8419'
p4220
aS'204956'
p4221
aS'536848'
p4222
aS'601'
p4223
aS'106542'
p4224
aS'13850'
p4225
aS'302645'
p4226
aS'902544'
p4227
aS'225682'
p4228
aS'15629'
p4229
aS'12890'
p4230
aS'269994'
p4231
aS'28563'
p4232
aS'833532'
p4233
aS'13137'
p4234
aS'2276368'
p4235
aS'33620'
p4236
aS'16265'
p4237
aS'635325'
p4238
aS'19245'
p4239
aS'27182'
p4240
aS'109895'
p4241
aS'28663'
p4242
aS'256682'
p4243
aS'5304920'
p4244
aS'15379'
p4245
aS'132261'
p4246
aS'6706368'
p4247
aS'56386'
p4248
aS'563482'
p4249
aS'41874'
p4250
aS'2119'
p4251
aS'124244'
p4252
aS'9258'
p4253
aS'1509131'
p4254
aS'1181'
p4255
aS'7924'
p4256
aS'3775'
p4257
aS'112036'
p4258
aS'242646'
p4259
aS'12366'
p4260
aS'3000'
p4261
aS'72078'
p4262
aS'9075'
p4263
aS'19375'
p4264
aS'135554'
p4265
aS'20055'
p4266
aS'62652'
p4267
aS'471334'
p4268
aS'69770'
p4269
aS'8095'
p4270
aS'4816'
p4271
aS'5922'
p4272
aS'2453083'
p4273
aS'5080'
p4274
aS'102990'
p4275
aS'157201'
p4276
aS'1510026'
p4277
aS'22938'
p4278
aS'51271'
p4279
aS'712446'
p4280
aS'2930687'
p4281
aS'3493516'
p4282
aS'17306'
p4283
aS'150056'
p4284
aS'57999'
p4285
aS'35671'
p4286
aS'2064'
p4287
aS'54543'
p4288
aS'275497'
p4289
aS'187716'
p4290
aS'223880'
p4291
aS'878960'
p4292
aS'12306'
p4293
aS'374550'
p4294
aS'29460'
p4295
aS'14556'
p4296
aS'60332'
p4297
aS'32203'
p4298
aS'24449'
p4299
aS'3681803'
p4300
aS'38933'
p4301
aS'10068'
p4302
aS'254852'
p4303
aS'194102'
p4304
aS'40573'
p4305
aS'164540'
p4306
aS'29220'
p4307
aS'87016'
p4308
aS'14130'
p4309
aS'5418'
p4310
aS'30810'
p4311
aS'16469'
p4312
aS'40169'
p4313
aS'213064'
p4314
aS'802535'
p4315
aS'11156'
p4316
aS'38602'
p4317
aS'11021'
p4318
aS'12185'
p4319
aS'148292'
p4320
aS'54640'
p4321
aS'383294'
p4322
aS'3062'
p4323
aS'1500'
p4324
aS'69394'
p4325
aS'22740'
p4326
aS'67421'
p4327
aS'71737'
p4328
aS'6487'
p4329
aS'1215045'
p4330
aS'67095'
p4331
aS'24082'
p4332
aS'60335'
p4333
aS'23701'
p4334
aS'151792'
p4335
aS'1217'
p4336
aS'20944'
p4337
aS'27344'
p4338
aS'15100'
p4339
aS'1605'
p4340
aS'29337'
p4341
aS'516726'
p4342
aS'10584'
p4343
aS'66166'
p4344
aS'638476'
p4345
aS'770132'
p4346
aS'55513'
p4347
aS'1430'
p4348
aS'65429'
p4349
aS'7075'
p4350
aS'52467'
p4351
aS'12008'
p4352
aS'386073'
p4353
aS'194721'
p4354
aS'461572'
p4355
aS'22080'
p4356
aS'14272'
p4357
aS'178875'
p4358
aS'1408575'
p4359
aS'38244'
p4360
aS'35647'
p4361
aS'163745'
p4362
aS'49919'
p4363
aS'16386'
p4364
aS'64489'
p4365
aS'52034'
p4366
aS'14363397'
p4367
aS'219371'
p4368
aS'4291'
p4369
aS'38691'
p4370
aS'200992'
p4371
aS'61018'
p4372
aS'1538899'
p4373
aS'9395'
p4374
aS'64698'
p4375
aS'1165795'
p4376
aS'1029591'
p4377
aS'64462'
p4378
aS'112449'
p4379
aS'112313'
p4380
aS'55398'
p4381
aS'81280'
p4382
aS'73013910'
p4383
aS'2415727'
p4384
aS'20684'
p4385
aS'28972764'
p4386
aS'325653'
p4387
aS'2517'
p4388
aS'107040'
p4389
aS'64310'
p4390
aS'22664'
p4391
aS'40576'
p4392
aS'815848'
p4393
aS'378382'
p4394
aS'1121744'
p4395
aS'296131'
p4396
aS'151133'
p4397
aS'777129'
p4398
aS'11728'
p4399
aS'58334'
p4400
aS'20073'
p4401
aS'22026'
p4402
aS'100028'
p4403
aS'312706'
p4404
aS'142569'
p4405
aS'21154'
p4406
aS'20018'
p4407
aS'640013'
p4408
aS'3826'
p4409
aS'1591034'
p4410
aS'231378'
p4411
aS'27396'
p4412
aS'40492'
p4413
aS'1246'
p4414
aS'24146161'
p4415
aS'6123'
p4416
aS'4364'
p4417
aS'17979'
p4418
aS'48594'
p4419
aS'208392'
p4420
aS'126836'
p4421
aS'157200'
p4422
aS'17992'
p4423
aS'272371'
p4424
aS'4157223'
p4425
aS'647280'
p4426
aS'93477'
p4427
aS'32465'
p4428
aS'200010'
p4429
aS'2393'
p4430
aS'6859'
p4431
aS'7718'
p4432
aS'188467'
p4433
aS'7643'
p4434
aS'258237'
p4435
aS'204462'
p4436
aS'143986'
p4437
aS'86202'
p4438
aS'3384'
p4439
aS'10935'
p4440
aS'165845'
p4441
aS'2500'
p4442
aS'51301'
p4443
aS'194533'
p4444
aS'198600'
p4445
aS'287724'
p4446
aS'24729'
p4447
aS'1439972'
p4448
aS'128203'
p4449
aS'64944'
p4450
aS'20177'
p4451
aS'81881'
p4452
aS'44581'
p4453
aS'338987'
p4454
aS'219407'
p4455
aS'62173'
p4456
aS'122961'
p4457
aS'20840'
p4458
aS'60630'
p4459
aS'22457'
p4460
aS'9743'
p4461
aS'31313'
p4462
aS'118206'
p4463
aS'156612'
p4464
aS'12069'
p4465
aS'92822'
p4466
aS'45874'
p4467
aS'263723'
p4468
aS'91874'
p4469
aS'1134623'
p4470
aS'6950'
p4471
aS'1612430'
p4472
aS'120459'
p4473
aS'42423'
p4474
aS'113966'
p4475
aS'15635'
p4476
aS'8186'
p4477
aS'16214'
p4478
aS'46623'
p4479
aS'87763'
p4480
aS'18164'
p4481
aS'2021'
p4482
aS'87727'
p4483
aS'150268'
p4484
aS'4375'
p4485
aS'14528'
p4486
aS'48911'
p4487
aS'8663'
p4488
aS'2552478'
p4489
aS'14056'
p4490
aS'5661'
p4491
aS'707343'
p4492
aS'132055'
p4493
aS'89787'
p4494
aS'5202'
p4495
aS'445374'
p4496
aS'47724'
p4497
aS'101074'
p4498
aS'18918'
p4499
aS'30210'
p4500
aS'686152'
p4501
aS'1634386'
p4502
aS'930'
p4503
aS'313039'
p4504
aS'6795'
p4505
aS'254411'
p4506
aS'84689'
p4507
aS'53714'
p4508
aS'48752'
p4509
aS'248362'
p4510
aS'279665'
p4511
aS'6945'
p4512
aS'336386'
p4513
aS'518342'
p4514
aS'4930'
p4515
aS'4874'
p4516
aS'1088'
p4517
aS'242707'
p4518
aS'43089'
p4519
aS'2750707'
p4520
aS'6505'
p4521
aS'45743'
p4522
aS'60862'
p4523
aS'314402'
p4524
aS'240239'
p4525
aS'273870'
p4526
aS'216110'
p4527
aS'34096'
p4528
aS'5194'
p4529
aS'7830611'
p4530
aS'28102'
p4531
aS'21967'
p4532
aS'56573'
p4533
aS'10501'
p4534
aS'153908'
p4535
aS'176801'
p4536
aS'445522'
p4537
aS'135228'
p4538
aS'7753'
p4539
aS'50437'
p4540
aS'33504'
p4541
aS'26748'
p4542
aS'520151'
p4543
aS'29710'
p4544
aS'126238'
p4545
aS'15679'
p4546
aS'3820067'
p4547
aS'11441'
p4548
aS'612192'
p4549
aS'15312'
p4550
aS'13013'
p4551
aS'39075'
p4552
aS'40864'
p4553
aS'376612'
p4554
aS'421432'
p4555
aS'24640'
p4556
aS'9777'
p4557
aS'59081'
p4558
aS'3078'
p4559
aS'564632'
p4560
aS'10337'
p4561
aS'898137'
p4562
aS'51229'
p4563
aS'20616'
p4564
aS'10440'
p4565
aS'9816'
p4566
aS'3836'
p4567
aS'116037'
p4568
aS'39456'
p4569
aS'49591'
p4570
aS'39075'
p4571
aS'226584'
p4572
aS'26100'
p4573
aS'3237343'
p4574
aS'17304'
p4575
aS'17981'
p4576
aS'41430'
p4577
aS'3089'
p4578
aS'28873374'
p4579
aS'390024'
p4580
aS'3164'
p4581
aS'34754'
p4582
aS'30029'
p4583
aS'50605'
p4584
aS'2589616'
p4585
aS'4410'
p4586
aS'31272'
p4587
aS'589244'
p4588
aS'267965'
p4589
aS'84577'
p4590
aS'87879'
p4591
aS'39522'
p4592
aS'6905'
p4593
aS'189416'
p4594
aS'9791'
p4595
aS'15012935'
p4596
aS'527034'
p4597
aS'26756'
p4598
aS'52768'
p4599
aS'12546'
p4600
aS'272750'
p4601
aS'1338'
p4602
aS'61794'
p4603
aS'305036'
p4604
aS'12841'
p4605
aS'1114975'
p4606
aS'3664'
p4607
aS'942441'
p4608
aS'607844'
p4609
aS'8426'
p4610
aS'1678874'
p4611
aS'244951'
p4612
aS'6533'
p4613
aS'166750'
p4614
aS'72125'
p4615
aS'544890'
p4616
aS'40634'
p4617
aS'76173'
p4618
aS'34005'
p4619
aS'3103'
p4620
aS'3242'
p4621
aS'58825'
p4622
aS'28994'
p4623
aS'92113'
p4624
aS'27052'
p4625
aS'201275'
p4626
aS'9100'
p4627
aS'7137'
p4628
aS'47558'
p4629
aS'48668'
p4630
aS'112679'
p4631
aS'31420'
p4632
aS'33443'
p4633
aS'13614'
p4634
aS'30380'
p4635
aS'82553'
p4636
aS'2279692'
p4637
aS'583633'
p4638
aS'79772'
p4639
aS'17780194'
p4640
aS'781016'
p4641
aS'164386'
p4642
aS'143178'
p4643
aS'108807'
p4644
aS'36577'
p4645
aS'4946445'
p4646
aS'26073'
p4647
aS'34025'
p4648
aS'1479'
p4649
aS'6458'
p4650
aS'35591'
p4651
aS'8117961'
p4652
aS'4100'
p4653
aS'8779'
p4654
aS'26042'
p4655
aS'132782'
p4656
aS'207121'
p4657
aS'944933'
p4658
aS'18618'
p4659
aS'133058'
p4660
aS'3637'
p4661
aS'2073582'
p4662
aS'20440'
p4663
aS'43393'
p4664
aS'229117'
p4665
aS'342941'
p4666
aS'30328'
p4667
aS'114882'
p4668
aS'95865'
p4669
aS'1738'
p4670
aS'4779'
p4671
aS'5728581'
p4672
aS'103401'
p4673
aS'4255'
p4674
aS'370218'
p4675
aS'68249'
p4676
aS'18720'
p4677
aS'30050'
p4678
aS'50715'
p4679
aS'24630'
p4680
aS'1017579'
p4681
aS'43942'
p4682
aS'1014071'
p4683
aS'6480'
p4684
aS'260586'
p4685
aS'381225'
p4686
aS'70219'
p4687
aS'10550'
p4688
aS'52823'
p4689
aS'15313'
p4690
aS'6377461'
p4691
aS'100202'
p4692
aS'120712'
p4693
aS'14541'
p4694
aS'260523'
p4695
aS'41802'
p4696
aS'9269'
p4697
aS'288328'
p4698
aS'301447'
p4699
aS'102115'
p4700
aS'190229'
p4701
aS'177490'
p4702
aS'100401'
p4703
aS'3081'
p4704
aS'2155385'
p4705
aS'23899'
p4706
aS'34000'
p4707
aS'82378'
p4708
aS'37977'
p4709
aS'114507'
p4710
aS'7718961'
p4711
aS'7451'
p4712
aS'2789985'
p4713
aS'850920'
p4714
aS'13199'
p4715
aS'3121270'
p4716
aS'8077'
p4717
aS'1117'
p4718
aS'269823'
p4719
aS'8093'
p4720
aS'40106'
p4721
aS'433588'
p4722
aS'34402'
p4723
aS'323860'
p4724
aS'19339'
p4725
aS'116476'
p4726
aS'421516'
p4727
aS'44435'
p4728
aS'20819'
p4729
aS'77888'
p4730
aS'121304'
p4731
aS'373366'
p4732
aS'7000'
p4733
aS'2324'
p4734
aS'36280'
p4735
aS'4438'
p4736
aS'60064'
p4737
aS'154521'
p4738
aS'442936'
p4739
aS'11799'
p4740
aS'3685'
p4741
aS'1222708'
p4742
aS'11428'
p4743
aS'16566'
p4744
aS'52166'
p4745
aS'172450'
p4746
aS'3495043'
p4747
aS'3100'
p4748
aS'104678'
p4749
aS'597564'
p4750
aS'732393'
p4751
aS'5347'
p4752
aS'7051'
p4753
aS'2053648'
p4754
aS'790452'
p4755
aS'31736'
p4756
aS'34665'
p4757
aS'28516'
p4758
aS'6417135'
p4759
aS'391950'
p4760
aS'32208'
p4761
aS'146702'
p4762
aS'156818'
p4763
aS'30918'
p4764
aS'176979'
p4765
aS'69991'
p4766
aS'160621'
p4767
aS'177525'
p4768
aS'34023'
p4769
aS'96630'
p4770
aS'141504'
p4771
aS'2493'
p4772
aS'7822'
p4773
aS'3470'
p4774
aS'1476'
p4775
aS'8405'
p4776
aS'5677'
p4777
aS'68598'
p4778
aS'4783'
p4779
aS'226658'
p4780
aS'1610163'
p4781
aS'31918'
p4782
aS'8104'
p4783
aS'12133'
p4784
aS'2'
p4785
aS'1'
p4786
aS'3'
p4787
aS'1'
p4788
aS'5'
p4789
aS'1'
p4790
aS'2'
p4791
aS'23'
p4792
aS'16'
p4793
aS'6'
p4794
aS'339'
p4795
aS'3'
p4796
aS'2'
p4797
aS'6'
p4798
aS'3'
p4799
aS'5'
p4800
aS'2'
p4801
aS'43'
p4802
aS'5'
p4803
aS'6'
p4804
aS'5'
p4805
aS'3'
p4806
aS'1224'
p4807
aS'2'
p4808
aS'1'
p4809
aS'6'
p4810
aS'1'
p4811
aS'20'
p4812
aS'2'
p4813
aS'1'
p4814
aS'4'
p4815
aS'1'
p4816
aS'3'
p4817
aS'26'
p4818
aS'3'
p4819
aS'1'
p4820
aS'1'
p4821
aS'1037'
p4822
aS'16'
p4823
aS'2'
p4824
aS'3'
p4825
aS'4'
p4826
aS'137'
p4827
aS'6'
p4828
aS'2011'
p4829
aS'70'
p4830
aS'14'
p4831
aS'1'
p4832
aS'1'
p4833
aS'5'
p4834
aS'17'
p4835
aS'15'
p4836
aS'6'
p4837
aS'7'
p4838
aS'3'
p4839
aS'20'
p4840
aS'7'
p4841
aS'1'
p4842
aS'105'
p4843
aS'27'
p4844
aS'21'
p4845
aS'5'
p4846
aS'-'
p4847
aS'1'
p4848
aS'12'
p4849
aS'1'
p4850
aS'5'
p4851
aS'54'
p4852
aS'1'
p4853
aS'3'
p4854
aS'6'
p4855
aS'2'
p4856
aS'5'
p4857
aS'2'
p4858
aS'2'
p4859
aS'23'
p4860
aS'55'
p4861
aS'7'
p4862
aS'2'
p4863
aS'15'
p4864
aS'1'
p4865
aS'543'
p4866
aS'1'
p4867
aS'1'
p4868
aS'3'
p4869
aS'1'
p4870
aS'2'
p4871
aS'4'
p4872
aS'3'
p4873
aS'21'
p4874
aS'6'
p4875
aS'117'
p4876
aS'2'
p4877
aS'17'
p4878
aS'9'
p4879
aS'2017'
p4880
aS'1'
p4881
aS'13'
p4882
aS'1'
p4883
aS'1'
p4884
aS'8'
p4885
aS'13'
p4886
aS'9'
p4887
aS'28'
p4888
aS'9'
p4889
aS'2'
p4890
aS'1'
p4891
aS'304'
p4892
aS'4'
p4893
aS'1'
p4894
aS'27'
p4895
aS'5'
p4896
aS'231'
p4897
aS'14'
p4898
aS'3'
p4899
aS'8'
p4900
aS'2'
p4901
aS'23'
p4902
aS'4'
p4903
aS'46'
p4904
aS'6'
p4905
aS'6'
p4906
aS'4'
p4907
aS'3'
p4908
aS'2732'
p4909
aS'3'
p4910
aS'15'
p4911
aS'30'
p4912
aS'50'
p4913
aS'21'
p4914
aS'22'
p4915
aS'9'
p4916
aS'1'
p4917
aS'20'
p4918
aS'25'
p4919
aS'221'
p4920
aS'4'
p4921
aS'93'
p4922
aS'20'
p4923
aS'25'
p4924
aS'1'
p4925
aS'3'
p4926
aS'33'
p4927
aS'21'
p4928
aS'1'
p4929
aS'11'
p4930
aS'2'
p4931
aS'3'
p4932
aS'38'
p4933
aS'24'
p4934
aS'12'
p4935
aS'1'
p4936
aS'25'
p4937
aS'24'
p4938
aS'1'
p4939
aS'6'
p4940
aS'3'
p4941
aS'5'
p4942
aS'1'
p4943
aS'3'
p4944
aS'2'
p4945
aS'20'
p4946
aS'2'
p4947
aS'17'
p4948
aS'43'
p4949
aS'1'
p4950
aS'3'
p4951
aS'70'
p4952
aS'2'
p4953
aS'1'
p4954
aS'3'
p4955
aS'1'
p4956
aS'1'
p4957
aS'2'
p4958
aS'2'
p4959
aS'10'
p4960
aS'1'
p4961
aS'103'
p4962
aS'25'
p4963
aS'1'
p4964
aS'6'
p4965
aS'3'
p4966
aS'4'
p4967
aS'6'
p4968
aS'3'
p4969
aS'2506'
p4970
aS'6'
p4971
aS'6'
p4972
aS'11'
p4973
aS'4'
p4974
aS'21'
p4975
aS'1'
p4976
aS'19'
p4977
aS'11'
p4978
aS'7'
p4979
aS'40'
p4980
aS'4'
p4981
aS'2'
p4982
aS'157'
p4983
aS'4'
p4984
aS'9'
p4985
aS'3'
p4986
aS'3'
p4987
aS'28'
p4988
aS'1052'
p4989
aS'21'
p4990
aS'15'
p4991
aS'89'
p4992
aS'38'
p4993
aS'12'
p4994
aS'6'
p4995
aS'16'
p4996
aS'1'
p4997
aS'1232'
p4998
aS'8'
p4999
aS'10'
p5000
aS'5'
p5001
aS'65'
p5002
aS'5'
p5003
aS'5'
p5004
aS'4'
p5005
aS'1'
p5006
aS'2'
p5007
aS'7'
p5008
aS'1'
p5009
aS'2'
p5010
aS'2'
p5011
aS'155'
p5012
aS'3'
p5013
aS'4'
p5014
aS'37'
p5015
aS'12'
p5016
aS'5'
p5017
aS'1'
p5018
aS'280'
p5019
aS'3'
p5020
aS'12'
p5021
aS'50'
p5022
aS'56'
p5023
aS'4'
p5024
aS'27'
p5025
aS'2'
p5026
aS'7'
p5027
aS'1'
p5028
aS'15'
p5029
aS'7'
p5030
aS'1'
p5031
aS'906'
p5032
aS'9'
p5033
aS'243'
p5034
aS'7'
p5035
aS'56'
p5036
aS'1'
p5037
aS'6'
p5038
aS'1'
p5039
aS'5'
p5040
aS'9'
p5041
aS'5'
p5042
aS'17'
p5043
aS'230'
p5044
aS'9'
p5045
aS'5'
p5046
aS'8'
p5047
aS'5'
p5048
aS'1'
p5049
aS'2'
p5050
aS'5'
p5051
aS'1'
p5052
aS'5'
p5053
aS'16'
p5054
aS'55'
p5055
aS'11'
p5056
aS'2'
p5057
aS'3'
p5058
aS'21'
p5059
aS'13'
p5060
aS'11'
p5061
aS'21'
p5062
aS'6'
p5063
aS'10'
p5064
aS'73'
p5065
aS'22'
p5066
aS'1'
p5067
aS'9'
p5068
aS'277'
p5069
aS'31'
p5070
aS'2'
p5071
aS'27'
p5072
aS'53'
p5073
aS'3'
p5074
aS'12'
p5075
aS'2'
p5076
aS'1'
p5077
aS'13'
p5078
aS'37'
p5079
aS'3'
p5080
aS'4'
p5081
aS'6'
p5082
aS'248'
p5083
aS'9'
p5084
aS'6'
p5085
aS'23'
p5086
aS'3'
p5087
aS'2'
p5088
aS'6'
p5089
aS'4'
p5090
aS'3'
p5091
aS'3'
p5092
aS'10'
p5093
aS'202'
p5094
aS'8'
p5095
aS'3'
p5096
aS'3'
p5097
aS'2'
p5098
aS'13'
p5099
aS'65'
p5100
aS'170'
p5101
aS'21'
p5102
aS'1'
p5103
aS'102'
p5104
aS'4'
p5105
aS'27'
p5106
aS'84'
p5107
aS'23'
p5108
aS'1'
p5109
aS'9'
p5110
aS'2'
p5111
aS'22'
p5112
aS'4'
p5113
aS'3'
p5114
aS'6'
p5115
aS'1'
p5116
aS'54'
p5117
aS'152'
p5118
aS'1'
p5119
aS'18'
p5120
aS'5'
p5121
aS'10'
p5122
aS'2'
p5123
aS'56'
p5124
aS'7'
p5125
aS'2'
p5126
aS'2'
p5127
aS'56'
p5128
aS'1'
p5129
aS'333'
p5130
aS'2'
p5131
aS'8'
p5132
aS'1'
p5133
aS'2'
p5134
aS'5'
p5135
aS'97'
p5136
aS'3'
p5137
aS'3'
p5138
aS'4'
p5139
aS'1'
p5140
aS'5'
p5141
aS'6'
p5142
aS'3'
p5143
aS'12'
p5144
aS'5'
p5145
aS'1'
p5146
aS'1'
p5147
aS'91'
p5148
aS'1'
p5149
aS'3'
p5150
aS'2'
p5151
aS'1'
p5152
aS'1'
p5153
aS'10'
p5154
aS'1105'
p5155
aS'5'
p5156
aS'29'
p5157
aS'1'
p5158
aS'3'
p5159
aS'3'
p5160
aS'18'
p5161
aS'5'
p5162
aS'2'
p5163
aS'1'
p5164
aS'3'
p5165
aS'1804'
p5166
aS'4'
p5167
aS'4'
p5168
aS'16'
p5169
aS'1'
p5170
aS'14'
p5171
aS'43'
p5172
aS'4'
p5173
aS'5'
p5174
aS'7'
p5175
aS'1'
p5176
aS'18'
p5177
aS'5'
p5178
aS'5'
p5179
aS'1'
p5180
aS'105'
p5181
aS'61'
p5182
aS'11'
p5183
aS'9'
p5184
aS'7'
p5185
aS'6'
p5186
aS'2'
p5187
aS'3'
p5188
aS'10'
p5189
aS'28'
p5190
aS'70'
p5191
aS'19'
p5192
aS'3'
p5193
aS'1'
p5194
aS'16'
p5195
aS'2'
p5196
aS'6'
p5197
aS'8'
p5198
aS'6'
p5199
aS'29'
p5200
aS'10'
p5201
aS'111'
p5202
aS'5'
p5203
aS'1'
p5204
aS'6'
p5205
aS'5'
p5206
aS'1'
p5207
aS'100'
p5208
aS'27'
p5209
aS'4'
p5210
aS'4'
p5211
aS'1'
p5212
aS'2'
p5213
aS'31'
p5214
aS'10'
p5215
aS'151'
p5216
aS'2'
p5217
aS'18'
p5218
aS'1'
p5219
aS'1'
p5220
aS'244'
p5221
aS'1'
p5222
aS'3'
p5223
aS'21'
p5224
aS'1'
p5225
aS'58'
p5226
aS'27'
p5227
aS'5'
p5228
aS'7'
p5229
aS'1'
p5230
aS'59'
p5231
aS'1'
p5232
aS'3'
p5233
aS'35'
p5234
aS'1'
p5235
aS'6'
p5236
aS'2'
p5237
aS'21'
p5238
aS'1'
p5239
aS'3'
p5240
aS'15'
p5241
aS'1'
p5242
aS'18'
p5243
aS'1'
p5244
aS'2'
p5245
aS'2'
p5246
aS'1'
p5247
aS'2'
p5248
aS'2'
p5249
aS'1'
p5250
aS'8'
p5251
aS'2'
p5252
aS'3'
p5253
aS'2'
p5254
aS'5'
p5255
aS'9'
p5256
aS'358'
p5257
aS'5'
p5258
aS'11'
p5259
aS'2'
p5260
aS'4'
p5261
aS'2'
p5262
aS'129'
p5263
aS'157'
p5264
aS'8'
p5265
aS'23'
p5266
aS'250'
p5267
aS'8'
p5268
aS'4'
p5269
aS'52'
p5270
aS'14'
p5271
aS'8'
p5272
aS'16'
p5273
aS'6'
p5274
aS'2'
p5275
aS'4'
p5276
aS'212'
p5277
aS'1'
p5278
aS'1'
p5279
aS'9'
p5280
aS'1'
p5281
aS'4'
p5282
aS'9'
p5283
aS'84'
p5284
aS'11'
p5285
aS'2'
p5286
aS'3'
p5287
aS'10'
p5288
aS'10'
p5289
aS'4'
p5290
aS'6'
p5291
aS'3'
p5292
aS'4'
p5293
aS'2'
p5294
aS'5'
p5295
aS'28'
p5296
aS'19'
p5297
aS'8'
p5298
aS'1'
p5299
aS'352'
p5300
aS'3'
p5301
aS'1'
p5302
aS'8'
p5303
aS'2'
p5304
aS'70'
p5305
aS'3'
p5306
aS'15'
p5307
aS'7'
p5308
aS'119'
p5309
aS'2'
p5310
aS'1'
p5311
aS'15'
p5312
aS'2'
p5313
aS'4'
p5314
aS'1'
p5315
aS'11'
p5316
aS'1'
p5317
aS'80'
p5318
aS'70'
p5319
aS'7'
p5320
aS'22'
p5321
aS'962'
p5322
aS'261'
p5323
aS'78'
p5324
aS'1'
p5325
aS'3'
p5326
aS'1'
p5327
aS'16'
p5328
aS'9'
p5329
aS'11'
p5330
aS'15'
p5331
aS'67'
p5332
aS'1'
p5333
aS'15'
p5334
aS'2'
p5335
aS'561'
p5336
aS'6'
p5337
aS'2'
p5338
aS'5'
p5339
aS'104'
p5340
aS'1'
p5341
aS'5'
p5342
aS'2'
p5343
aS'1'
p5344
aS'1'
p5345
aS'4'
p5346
aS'5'
p5347
aS'7'
p5348
aS'39'
p5349
aS'1'
p5350
aS'111'
p5351
aS'32'
p5352
aS'1117'
p5353
aS'5'
p5354
aS'3'
p5355
aS'42'
p5356
aS'5'
p5357
aS'2'
p5358
aS'9'
p5359
aS'25'
p5360
aS'3'
p5361
aS'7'
p5362
aS'2'
p5363
aS'2'
p5364
aS'31'
p5365
aS'31'
p5366
aS'16'
p5367
aS'3'
p5368
aS'14'
p5369
aS'2'
p5370
aS'2'
p5371
aS'5'
p5372
aS'46'
p5373
aS'19'
p5374
aS'38'
p5375
aS'127'
p5376
aS'2'
p5377
aS'116'
p5378
aS'6'
p5379
aS'1'
p5380
aS'4'
p5381
aS'9'
p5382
aS'1'
p5383
aS'1'
p5384
aS'1'
p5385
aS'3'
p5386
aS'4'
p5387
aS'163'
p5388
aS'56'
p5389
aS'1'
p5390
aS'1'
p5391
aS'1'
p5392
aS'1'
p5393
aS'18'
p5394
aS'6'
p5395
aS'18'
p5396
aS'4'
p5397
aS'568'
p5398
aS'13'
p5399
aS'1'
p5400
aS'4'
p5401
aS'6'
p5402
aS'3'
p5403
aS'10'
p5404
aS'12'
p5405
aS'1'
p5406
aS'7'
p5407
aS'3'
p5408
aS'16'
p5409
aS'52'
p5410
aS'20'
p5411
aS'1'
p5412
aS'1'
p5413
aS'13'
p5414
aS'2'
p5415
aS'227'
p5416
aS'2'
p5417
aS'64'
p5418
aS'4'
p5419
aS'1'
p5420
aS'61'
p5421
aS'2'
p5422
aS'2'
p5423
aS'2'
p5424
aS'3'
p5425
aS'20'
p5426
aS'123'
p5427
aS'2'
p5428
aS'5'
p5429
aS'265'
p5430
aS'3'
p5431
aS'6'
p5432
aS'3'
p5433
aS'2'
p5434
aS'9'
p5435
aS'2'
p5436
aS'97'
p5437
aS'1'
p5438
aS'1'
p5439
aS'1'
p5440
aS'6'
p5441
aS'9'
p5442
aS'3'
p5443
aS'1'
p5444
aS'8'
p5445
aS'1'
p5446
aS'6'
p5447
aS'11'
p5448
aS'1'
p5449
aS'7'
p5450
aS'60'
p5451
aS'5'
p5452
aS'1'
p5453
aS'2'
p5454
aS'2'
p5455
aS'40'
p5456
aS'1'
p5457
aS'10'
p5458
aS'6'
p5459
aS'34'
p5460
aS'3'
p5461
aS'8'
p5462
aS'13'
p5463
aS'115'
p5464
aS'28'
p5465
aS'1'
p5466
aS'14'
p5467
aS'12'
p5468
aS'2'
p5469
aS'1'
p5470
aS'3'
p5471
aS'55'
p5472
aS'8'
p5473
aS'30'
p5474
aS'40'
p5475
aS'1'
p5476
aS'6'
p5477
aS'5'
p5478
aS'1'
p5479
aS'10'
p5480
aS'3'
p5481
aS'4'
p5482
aS'91'
p5483
aS'8'
p5484
aS'4'
p5485
aS'8'
p5486
aS'16'
p5487
aS'7'
p5488
aS'43'
p5489
aS'2'
p5490
aS'6'
p5491
aS'1'
p5492
aS'1'
p5493
aS'1'
p5494
aS'2'
p5495
aS'4'
p5496
aS'46'
p5497
aS'28'
p5498
aS'1'
p5499
aS'5'
p5500
aS'2'
p5501
aS'3'
p5502
aS'5'
p5503
aS'4'
p5504
aS'77'
p5505
aS'1'
p5506
aS'2'
p5507
aS'3'
p5508
aS'3'
p5509
aS'21'
p5510
aS'6'
p5511
aS'1'
p5512
aS'84'
p5513
aS'4'
p5514
aS'1'
p5515
aS'4'
p5516
aS'2'
p5517
aS'9'
p5518
aS'2'
p5519
aS'1'
p5520
aS'1'
p5521
aS'2'
p5522
aS'1'
p5523
aS'3'
p5524
aS'8'
p5525
aS'6'
p5526
aS'5'
p5527
aS'141'
p5528
aS'9'
p5529
aS'5'
p5530
aS'1'
p5531
aS'10'
p5532
aS'1'
p5533
aS'5'
p5534
aS'1'
p5535
aS'24'
p5536
aS'8'
p5537
aS'18'
p5538
aS'2'
p5539
aS'2'
p5540
aS'10'
p5541
aS'81'
p5542
aS'7'
p5543
aS'5'
p5544
aS'9'
p5545
aS'1'
p5546
aS'1'
p5547
aS'9'
p5548
aS'4'
p5549
aS'995'
p5550
aS'15'
p5551
aS'1'
p5552
aS'2'
p5553
aS'6'
p5554
aS'23'
p5555
aS'104'
p5556
aS'1'
p5557
aS'5'
p5558
aS'29'
p5559
aS'51'
p5560
aS'5'
p5561
aS'6'
p5562
aS'5'
p5563
aS'1'
p5564
aS'5'
p5565
aS'3118'
p5566
aS'131'
p5567
aS'1'
p5568
aS'1567'
p5569
aS'22'
p5570
aS'1'
p5571
aS'2'
p5572
aS'32'
p5573
aS'5'
p5574
aS'8'
p5575
aS'21'
p5576
aS'12'
p5577
aS'43'
p5578
aS'7'
p5579
aS'26'
p5580
aS'14'
p5581
aS'1'
p5582
aS'3'
p5583
aS'1'
p5584
aS'1'
p5585
aS'8'
p5586
aS'57'
p5587
aS'11'
p5588
aS'5'
p5589
aS'1'
p5590
aS'80'
p5591
aS'1'
p5592
aS'74'
p5593
aS'35'
p5594
aS'1'
p5595
aS'3'
p5596
aS'1'
p5597
aS'587'
p5598
aS'1'
p5599
aS'1'
p5600
aS'3'
p5601
aS'5'
p5602
aS'9'
p5603
aS'11'
p5604
aS'6'
p5605
aS'2'
p5606
aS'11'
p5607
aS'466'
p5608
aS'61'
p5609
aS'6'
p5610
aS'4'
p5611
aS'25'
p5612
aS'1'
p5613
aS'2'
p5614
aS'1'
p5615
aS'8'
p5616
aS'1'
p5617
aS'24'
p5618
aS'12'
p5619
aS'37'
p5620
aS'5'
p5621
aS'1'
p5622
aS'6'
p5623
aS'3'
p5624
aS'1'
p5625
aS'3'
p5626
aS'16'
p5627
aS'12'
p5628
aS'9'
p5629
aS'4'
p5630
aS'64'
p5631
aS'10'
p5632
aS'3'
p5633
aS'1'
p5634
aS'5'
p5635
aS'16'
p5636
aS'23'
p5637
aS'13'
p5638
aS'2'
p5639
aS'7'
p5640
aS'3'
p5641
aS'4'
p5642
aS'3'
p5643
aS'1'
p5644
aS'5'
p5645
aS'21'
p5646
aS'5'
p5647
aS'1'
p5648
aS'5'
p5649
aS'1'
p5650
aS'13'
p5651
aS'6'
p5652
aS'25'
p5653
aS'1'
p5654
aS'47'
p5655
aS'8'
p5656
aS'6'
p5657
aS'10'
p5658
aS'1'
p5659
aS'3'
p5660
aS'2'
p5661
aS'3'
p5662
aS'2'
p5663
aS'2'
p5664
aS'1'
p5665
aS'13'
p5666
aS'13'
p5667
aS'1'
p5668
aS'1'
p5669
aS'12'
p5670
aS'1'
p5671
aS'80'
p5672
aS'5'
p5673
aS'4'
p5674
aS'111'
p5675
aS'15'
p5676
aS'10'
p5677
aS'1'
p5678
aS'21'
p5679
aS'4'
p5680
aS'2'
p5681
aS'2'
p5682
aS'4'
p5683
aS'30'
p5684
aS'47'
p5685
aS'1'
p5686
aS'10'
p5687
aS'1'
p5688
aS'30'
p5689
aS'6'
p5690
aS'6'
p5691
aS'3'
p5692
aS'17'
p5693
aS'19'
p5694
aS'1'
p5695
aS'10'
p5696
aS'38'
p5697
aS'1'
p5698
aS'1'
p5699
aS'2'
p5700
aS'19'
p5701
aS'10'
p5702
aS'39'
p5703
aS'2'
p5704
aS'3'
p5705
aS'2'
p5706
aS'98'
p5707
aS'12'
p5708
aS'14'
p5709
aS'12'
p5710
aS'3'
p5711
aS'1'
p5712
aS'262'
p5713
aS'8'
p5714
aS'2'
p5715
aS'7'
p5716
aS'1'
p5717
aS'24'
p5718
aS'9'
p5719
aS'13'
p5720
aS'14'
p5721
aS'2'
p5722
aS'3'
p5723
aS'3'
p5724
aS'5'
p5725
aS'15'
p5726
aS'2'
p5727
aS'12'
p5728
aS'1'
p5729
aS'143'
p5730
aS'1'
p5731
aS'29'
p5732
aS'2'
p5733
aS'4'
p5734
aS'4'
p5735
aS'4'
p5736
aS'20'
p5737
aS'32'
p5738
aS'2'
p5739
aS'9'
p5740
aS'10'
p5741
aS'1'
p5742
aS'14'
p5743
aS'4'
p5744
aS'21'
p5745
aS'5'
p5746
aS'2'
p5747
aS'1'
p5748
aS'2'
p5749
aS'1'
p5750
aS'3'
p5751
aS'3'
p5752
aS'3'
p5753
aS'1'
p5754
aS'20'
p5755
aS'3'
p5756
aS'143'
p5757
aS'12'
p5758
aS'1'
p5759
aS'1'
p5760
aS'1'
p5761
aS'2735'
p5762
aS'24'
p5763
aS'2'
p5764
aS'6'
p5765
aS'4'
p5766
aS'7'
p5767
aS'74'
p5768
aS'1'
p5769
aS'5'
p5770
aS'22'
p5771
aS'24'
p5772
aS'13'
p5773
aS'12'
p5774
aS'2'
p5775
aS'17'
p5776
aS'17'
p5777
aS'1'
p5778
aS'652'
p5779
aS'8'
p5780
aS'5'
p5781
aS'4'
p5782
aS'1'
p5783
aS'11'
p5784
aS'1'
p5785
aS'5'
p5786
aS'41'
p5787
aS'2'
p5788
aS'21'
p5789
aS'2'
p5790
aS'109'
p5791
aS'56'
p5792
aS'1'
p5793
aS'74'
p5794
aS'8'
p5795
aS'1'
p5796
aS'2'
p5797
aS'6'
p5798
aS'34'
p5799
aS'4'
p5800
aS'5'
p5801
aS'6'
p5802
aS'2'
p5803
aS'1'
p5804
aS'9'
p5805
aS'4'
p5806
aS'2'
p5807
aS'1'
p5808
aS'24'
p5809
aS'3'
p5810
aS'1'
p5811
aS'9'
p5812
aS'7'
p5813
aS'19'
p5814
aS'3'
p5815
aS'3'
p5816
aS'2'
p5817
aS'1'
p5818
aS'4'
p5819
aS'45'
p5820
aS'138'
p5821
aS'7'
p5822
aS'1790'
p5823
aS'39'
p5824
aS'2'
p5825
aS'12'
p5826
aS'21'
p5827
aS'3'
p5828
aS'147'
p5829
aS'3'
p5830
aS'4'
p5831
aS'1'
p5832
aS'1'
p5833
aS'12'
p5834
aS'202'
p5835
aS'2'
p5836
aS'1'
p5837
aS'4'
p5838
aS'7'
p5839
aS'23'
p5840
aS'39'
p5841
aS'4'
p5842
aS'9'
p5843
aS'5'
p5844
aS'99'
p5845
aS'4'
p5846
aS'5'
p5847
aS'21'
p5848
aS'16'
p5849
aS'4'
p5850
aS'6'
p5851
aS'4'
p5852
aS'1'
p5853
aS'2'
p5854
aS'117'
p5855
aS'13'
p5856
aS'1'
p5857
aS'24'
p5858
aS'4'
p5859
aS'2'
p5860
aS'4'
p5861
aS'3'
p5862
aS'3'
p5863
aS'27'
p5864
aS'5'
p5865
aS'58'
p5866
aS'1'
p5867
aS'23'
p5868
aS'3'
p5869
aS'4'
p5870
aS'4'
p5871
aS'3'
p5872
aS'6'
p5873
aS'234'
p5874
aS'4'
p5875
aS'6'
p5876
aS'2'
p5877
aS'7'
p5878
aS'1'
p5879
aS'2'
p5880
aS'14'
p5881
aS'10'
p5882
aS'5'
p5883
aS'10'
p5884
aS'14'
p5885
aS'5'
p5886
aS'1'
p5887
aS'302'
p5888
aS'9'
p5889
aS'1'
p5890
aS'8'
p5891
aS'3'
p5892
aS'5'
p5893
aS'804'
p5894
aS'1'
p5895
aS'92'
p5896
aS'60'
p5897
aS'3'
p5898
aS'154'
p5899
aS'2'
p5900
aS'1'
p5901
aS'7'
p5902
aS'2'
p5903
aS'5'
p5904
aS'537'
p5905
aS'2'
p5906
aS'9'
p5907
aS'4'
p5908
aS'15'
p5909
aS'7'
p5910
aS'2'
p5911
aS'7'
p5912
aS'4'
p5913
aS'2'
p5914
aS'15'
p5915
aS'2'
p5916
aS'1'
p5917
aS'20'
p5918
aS'2'
p5919
aS'3'
p5920
aS'18'
p5921
aS'16'
p5922
aS'1'
p5923
aS'1'
p5924
aS'147'
p5925
aS'5'
p5926
aS'1'
p5927
aS'3'
p5928
aS'11'
p5929
aS'6'
p5930
aS'1'
p5931
aS'26'
p5932
aS'16'
p5933
aS'24'
p5934
aS'1'
p5935
aS'2'
p5936
aS'298'
p5937
aS'19'
p5938
aS'6'
p5939
aS'6'
p5940
aS'1'
p5941
aS'330'
p5942
aS'10'
p5943
aS'7'
p5944
aS'8'
p5945
aS'5'
p5946
aS'1'
p5947
aS'12'
p5948
aS'3'
p5949
aS'5'
p5950
aS'9'
p5951
aS'3'
p5952
aS'2'
p5953
aS'4'
p5954
aS'2'
p5955
aS'2'
p5956
aS'1'
p5957
aS'1'
p5958
aS'1'
p5959
aS'1'
p5960
aS'13'
p5961
aS'2'
p5962
aS'3'
p5963
aS'75'
p5964
aS'6'
p5965
aS'1'
p5966
aS'4'
p5967
aS'5451'
p5968
aS'5034'
p5969
aS'11945'
p5970
aS'2964'
p5971
aS'70432'
p5972
aS'3596'
p5973
aS'4138'
p5974
aS'15851'
p5975
aS'42566'
p5976
aS'4694'
p5977
aS'125636'
p5978
aS'9161'
p5979
aS'6768'
p5980
aS'3638'
p5981
aS'2886'
p5982
aS'9098'
p5983
aS'2085'
p5984
aS'12074'
p5985
aS'10000'
p5986
aS'16158'
p5987
aS'3938'
p5988
aS'2638'
p5989
aS'6003200'
p5990
aS'6036'
p5991
aS'2227'
p5992
aS'2238'
p5993
aS'3500'
p5994
aS'28434'
p5995
aS'15385'
p5996
aS'1847'
p5997
aS'10194'
p5998
aS'1736'
p5999
aS'6059'
p6000
aS'31576'
p6001
aS'466'
p6002
aS'2537'
p6003
aS'2040'
p6004
aS'2007567'
p6005
aS'23419'
p6006
aS'5905'
p6007
aS'7906'
p6008
aS'7283'
p6009
aS'96973'
p6010
aS'2277'
p6011
aS'23920637'
p6012
aS'27053'
p6013
aS'7963'
p6014
aS'895'
p6015
aS'7117'
p6016
aS'36412'
p6017
aS'6798'
p6018
aS'12256'
p6019
aS'1241'
p6020
aS'3077'
p6021
aS'3316'
p6022
aS'10930'
p6023
aS'27122'
p6024
aS'1035'
p6025
aS'269131'
p6026
aS'54000'
p6027
aS'17239'
p6028
aS'5515'
p6029
aS'26101'
p6030
aS'4497'
p6031
aS'3413'
p6032
aS'314'
p6033
aS'2475'
p6034
aS'111982'
p6035
aS'2245'
p6036
aS'5554'
p6037
aS'9690'
p6038
aS'7768'
p6039
aS'12608'
p6040
aS'5526'
p6041
aS'418'
p6042
aS'45589'
p6043
aS'21767'
p6044
aS'10606'
p6045
aS'9646'
p6046
aS'26812'
p6047
aS'3500'
p6048
aS'2160460'
p6049
aS'533'
p6050
aS'2552'
p6051
aS'2944'
p6052
aS'1350'
p6053
aS'5595'
p6054
aS'5043'
p6055
aS'2320'
p6056
aS'45008'
p6057
aS'2915'
p6058
aS'31533'
p6059
aS'1962'
p6060
aS'41346'
p6061
aS'2559'
p6062
aS'31610'
p6063
aS'12195'
p6064
aS'17316'
p6065
aS'6742'
p6066
aS'7659'
p6067
aS'8318'
p6068
aS'17001'
p6069
aS'9601'
p6070
aS'42992'
p6071
aS'15096'
p6072
aS'7130'
p6073
aS'4117'
p6074
aS'149879'
p6075
aS'12910'
p6076
aS'4438'
p6077
aS'34651'
p6078
aS'7559'
p6079
aS'320894'
p6080
aS'29917'
p6081
aS'5160'
p6082
aS'12207'
p6083
aS'2012'
p6084
aS'4324'
p6085
aS'5712'
p6086
aS'6093'
p6087
aS'5643'
p6088
aS'6293'
p6089
aS'7819'
p6090
aS'630'
p6091
aS'7138266'
p6092
aS'8252'
p6093
aS'22963'
p6094
aS'264548'
p6095
aS'62842'
p6096
aS'49182'
p6097
aS'22846'
p6098
aS'87743'
p6099
aS'1525'
p6100
aS'54553'
p6101
aS'14000'
p6102
aS'309455'
p6103
aS'5791'
p6104
aS'51392'
p6105
aS'31893'
p6106
aS'30500'
p6107
aS'4272'
p6108
aS'4424'
p6109
aS'22088'
p6110
aS'4846'
p6111
aS'14155'
p6112
aS'4178'
p6113
aS'4895'
p6114
aS'6193'
p6115
aS'21762'
p6116
aS'24729'
p6117
aS'1114'
p6118
aS'5202'
p6119
aS'54458'
p6120
aS'23217'
p6121
aS'5111'
p6122
aS'2273'
p6123
aS'2647'
p6124
aS'3321'
p6125
aS'2706'
p6126
aS'189'
p6127
aS'3423'
p6128
aS'26290'
p6129
aS'9571'
p6130
aS'17317'
p6131
aS'26847'
p6132
aS'1239'
p6133
aS'8773'
p6134
aS'76222'
p6135
aS'2477'
p6136
aS'10752'
p6137
aS'6193'
p6138
aS'2377'
p6139
aS'2628'
p6140
aS'3547'
p6141
aS'10125'
p6142
aS'2064'
p6143
aS'4552'
p6144
aS'140888'
p6145
aS'12759'
p6146
aS'3958'
p6147
aS'4721'
p6148
aS'7246'
p6149
aS'6306'
p6150
aS'4446'
p6151
aS'25086'
p6152
aS'137492'
p6153
aS'10131'
p6154
aS'10594'
p6155
aS'5872'
p6156
aS'2740'
p6157
aS'30855'
p6158
aS'604'
p6159
aS'49313'
p6160
aS'17583'
p6161
aS'32598'
p6162
aS'13360'
p6163
aS'13528'
p6164
aS'8781'
p6165
aS'27459'
p6166
aS'18580'
p6167
aS'6674'
p6168
aS'1176'
p6169
aS'3425'
p6170
aS'29693'
p6171
aS'2970848'
p6172
aS'13690'
p6173
aS'9482'
p6174
aS'51326'
p6175
aS'17952'
p6176
aS'9805'
p6177
aS'5733'
p6178
aS'5800'
p6179
aS'2181'
p6180
aS'6058958'
p6181
aS'27095'
p6182
aS'6316'
p6183
aS'7431'
p6184
aS'28911'
p6185
aS'5279'
p6186
aS'6719'
p6187
aS'3560'
p6188
aS'516'
p6189
aS'1333'
p6190
aS'6589'
p6191
aS'2363'
p6192
aS'5025'
p6193
aS'1869'
p6194
aS'60513'
p6195
aS'7539'
p6196
aS'7352'
p6197
aS'91201'
p6198
aS'17857'
p6199
aS'3430'
p6200
aS'2740'
p6201
aS'853589'
p6202
aS'7980'
p6203
aS'16835'
p6204
aS'45000'
p6205
aS'19859'
p6206
aS'6059'
p6207
aS'19916'
p6208
aS'5833'
p6209
aS'19032'
p6210
aS'6207'
p6211
aS'10758'
p6212
aS'17466'
p6213
aS'3815'
p6214
aS'1506802'
p6215
aS'4837'
p6216
aS'438615'
p6217
aS'7547'
p6218
aS'85046'
p6219
aS'8143'
p6220
aS'5514'
p6221
aS'2213'
p6222
aS'4497'
p6223
aS'14030'
p6224
aS'3360'
p6225
aS'23192'
p6226
aS'516641'
p6227
aS'22444'
p6228
aS'1966'
p6229
aS'6753'
p6230
aS'5457'
p6231
aS'1130'
p6232
aS'2219'
p6233
aS'13998'
p6234
aS'3545'
p6235
aS'11599'
p6236
aS'21098'
p6237
aS'17130'
p6238
aS'19537'
p6239
aS'5705'
p6240
aS'9711'
p6241
aS'15264'
p6242
aS'27761'
p6243
aS'14630'
p6244
aS'33165'
p6245
aS'5728'
p6246
aS'20628'
p6247
aS'262004'
p6248
aS'12740'
p6249
aS'522'
p6250
aS'10148'
p6251
aS'1488081'
p6252
aS'21675'
p6253
aS'6695'
p6254
aS'28340'
p6255
aS'146909'
p6256
aS'1226'
p6257
aS'11799'
p6258
aS'10396'
p6259
aS'1530'
p6260
aS'9336'
p6261
aS'41104'
p6262
aS'9560'
p6263
aS'9165'
p6264
aS'17118'
p6265
aS'209148'
p6266
aS'12268'
p6267
aS'31252'
p6268
aS'17814'
p6269
aS'2501'
p6270
aS'1794'
p6271
aS'20024'
p6272
aS'5403'
p6273
aS'14510'
p6274
aS'4589'
p6275
aS'7920'
p6276
aS'33128'
p6277
aS'8413'
p6278
aS'1821'
p6279
aS'7056'
p6280
aS'2344'
p6281
aS'2407'
p6282
aS'69143'
p6283
aS'81640'
p6284
aS'3610'
p6285
aS'2790'
p6286
aS'148698'
p6287
aS'6510'
p6288
aS'13813'
p6289
aS'245000'
p6290
aS'12025'
p6291
aS'2590'
p6292
aS'5075'
p6293
aS'5712'
p6294
aS'25820'
p6295
aS'12655'
p6296
aS'3981'
p6297
aS'1589'
p6298
aS'3673'
p6299
aS'91388'
p6300
aS'67548'
p6301
aS'5869'
p6302
aS'30664'
p6303
aS'17357'
p6304
aS'61200'
p6305
aS'1421'
p6306
aS'57640'
p6307
aS'8741'
p6308
aS'893'
p6309
aS'1483'
p6310
aS'13901'
p6311
aS'2163'
p6312
aS'2509808'
p6313
aS'2546'
p6314
aS'9840'
p6315
aS'577'
p6316
aS'3025'
p6317
aS'6822'
p6318
aS'57286'
p6319
aS'6627'
p6320
aS'2496'
p6321
aS'9442'
p6322
aS'2338'
p6323
aS'8981'
p6324
aS'14490'
p6325
aS'5701'
p6326
aS'16453'
p6327
aS'33115'
p6328
aS'4988'
p6329
aS'4792'
p6330
aS'310127'
p6331
aS'10601'
p6332
aS'10976'
p6333
aS'2011'
p6334
aS'9327'
p6335
aS'1219'
p6336
aS'12756'
p6337
aS'38608'
p6338
aS'8227'
p6339
aS'27450'
p6340
aS'1082'
p6341
aS'1678'
p6342
aS'1591'
p6343
aS'32037'
p6344
aS'3215'
p6345
aS'2842'
p6346
aS'3428'
p6347
aS'3792'
p6348
aS'8825760'
p6349
aS'9283'
p6350
aS'3670'
p6351
aS'34839'
p6352
aS'430'
p6353
aS'16524'
p6354
aS'35189'
p6355
aS'1881'
p6356
aS'7800'
p6357
aS'8753'
p6358
aS'5888'
p6359
aS'33142'
p6360
aS'25807'
p6361
aS'9202'
p6362
aS'7039'
p6363
aS'126321'
p6364
aS'64479'
p6365
aS'6563'
p6366
aS'1622'
p6367
aS'13301'
p6368
aS'7043'
p6369
aS'2641'
p6370
aS'5422'
p6371
aS'20437'
p6372
aS'27879'
p6373
aS'103355'
p6374
aS'21381'
p6375
aS'1886'
p6376
aS'456'
p6377
aS'4632'
p6378
aS'6183'
p6379
aS'3530'
p6380
aS'5066'
p6381
aS'4095'
p6382
aS'20247'
p6383
aS'1239'
p6384
aS'182943'
p6385
aS'8625'
p6386
aS'1124'
p6387
aS'1613'
p6388
aS'6090'
p6389
aS'555'
p6390
aS'131411'
p6391
aS'53901'
p6392
aS'6330'
p6393
aS'9047'
p6394
aS'5302'
p6395
aS'2455'
p6396
aS'26697'
p6397
aS'7035'
p6398
aS'76639'
p6399
aS'319'
p6400
aS'86741'
p6401
aS'2874'
p6402
aS'2814'
p6403
aS'60224'
p6404
aS'3968'
p6405
aS'1088'
p6406
aS'53277'
p6407
aS'5925'
p6408
aS'51493'
p6409
aS'88709'
p6410
aS'10472'
p6411
aS'14903'
p6412
aS'2754'
p6413
aS'191942'
p6414
aS'4800'
p6415
aS'3199'
p6416
aS'16118'
p6417
aS'779'
p6418
aS'10322'
p6419
aS'10174'
p6420
aS'44108'
p6421
aS'2996'
p6422
aS'1232'
p6423
aS'46975'
p6424
aS'937'
p6425
aS'32589'
p6426
aS'1780'
p6427
aS'3552'
p6428
aS'9009'
p6429
aS'4891'
p6430
aS'6200'
p6431
aS'1460'
p6432
aS'3054'
p6433
aS'21410'
p6434
aS'8756'
p6435
aS'3423'
p6436
aS'7412'
p6437
aS'5299'
p6438
aS'4613'
p6439
aS'61313'
p6440
aS'11041'
p6441
aS'9813'
p6442
aS'2504'
p6443
aS'6635'
p6444
aS'7325'
p6445
aS'49777'
p6446
aS'150337'
p6447
aS'15411'
p6448
aS'10564'
p6449
aS'39649'
p6450
aS'14328'
p6451
aS'4891'
p6452
aS'35581'
p6453
aS'20355'
p6454
aS'40673'
p6455
aS'14181'
p6456
aS'14642'
p6457
aS'1938'
p6458
aS'2346'
p6459
aS'50937'
p6460
aS'4352'
p6461
aS'2268'
p6462
aS'17034'
p6463
aS'2793'
p6464
aS'4114'
p6465
aS'14287'
p6466
aS'68012'
p6467
aS'17482'
p6468
aS'2876'
p6469
aS'6294'
p6470
aS'16522'
p6471
aS'15471'
p6472
aS'3017'
p6473
aS'5664'
p6474
aS'1508'
p6475
aS'8576'
p6476
aS'6769'
p6477
aS'4620'
p6478
aS'24125'
p6479
aS'16500'
p6480
aS'15602'
p6481
aS'4347'
p6482
aS'1574787'
p6483
aS'5864'
p6484
aS'2264'
p6485
aS'14769'
p6486
aS'2354'
p6487
aS'20904'
p6488
aS'4056'
p6489
aS'5185'
p6490
aS'7299'
p6491
aS'71275'
p6492
aS'11477'
p6493
aS'3476'
p6494
aS'31800'
p6495
aS'5454'
p6496
aS'5440'
p6497
aS'3075'
p6498
aS'8335'
p6499
aS'1671'
p6500
aS'64315'
p6501
aS'68504'
p6502
aS'16595'
p6503
aS'31481'
p6504
aS'464170'
p6505
aS'41449'
p6506
aS'65154'
p6507
aS'6976'
p6508
aS'2966'
p6509
aS'5054'
p6510
aS'7724'
p6511
aS'1798'
p6512
aS'31842'
p6513
aS'15037'
p6514
aS'36731'
p6515
aS'1500'
p6516
aS'7412'
p6517
aS'10341'
p6518
aS'1412213'
p6519
aS'28125'
p6520
aS'822'
p6521
aS'6250'
p6522
aS'38281'
p6523
aS'1156'
p6524
aS'2506'
p6525
aS'1119'
p6526
aS'563'
p6527
aS'1003'
p6528
aS'1494'
p6529
aS'4920'
p6530
aS'13802'
p6531
aS'17645'
p6532
aS'7120'
p6533
aS'99740'
p6534
aS'24373'
p6535
aS'68969'
p6536
aS'2009'
p6537
aS'1015'
p6538
aS'32520'
p6539
aS'6535'
p6540
aS'2641'
p6541
aS'28050'
p6542
aS'27689'
p6543
aS'2300'
p6544
aS'29677'
p6545
aS'2214'
p6546
aS'8151'
p6547
aS'22379'
p6548
aS'63504'
p6549
aS'34060'
p6550
aS'6879'
p6551
aS'65132'
p6552
aS'6423'
p6553
aS'402'
p6554
aS'30710'
p6555
aS'170756'
p6556
aS'45202'
p6557
aS'95047'
p6558
aS'14605'
p6559
aS'2459'
p6560
aS'93000'
p6561
aS'4161'
p6562
aS'5763'
p6563
aS'2300'
p6564
aS'9870'
p6565
aS'245'
p6566
aS'9930'
p6567
aS'1900'
p6568
aS'4794'
p6569
aS'4471'
p6570
aS'279219'
p6571
aS'89087'
p6572
aS'1796'
p6573
aS'1415'
p6574
aS'1668'
p6575
aS'5271'
p6576
aS'37250'
p6577
aS'1570'
p6578
aS'21722'
p6579
aS'4725'
p6580
aS'3409643'
p6581
aS'15477'
p6582
aS'4482'
p6583
aS'2721'
p6584
aS'7799'
p6585
aS'1179'
p6586
aS'8230'
p6587
aS'19070'
p6588
aS'402'
p6589
aS'7149'
p6590
aS'4495'
p6591
aS'99462'
p6592
aS'17659'
p6593
aS'6776'
p6594
aS'6354'
p6595
aS'4017'
p6596
aS'10304'
p6597
aS'5593'
p6598
aS'22607'
p6599
aS'1846'
p6600
aS'134400'
p6601
aS'3546'
p6602
aS'13995'
p6603
aS'53344'
p6604
aS'4645'
p6605
aS'17112'
p6606
aS'5503'
p6607
aS'2939'
p6608
aS'7200'
p6609
aS'139101'
p6610
aS'981'
p6611
aS'8373'
p6612
aS'80253'
p6613
aS'10607'
p6614
aS'7607'
p6615
aS'8657'
p6616
aS'2119'
p6617
aS'16359'
p6618
aS'2605'
p6619
aS'63600'
p6620
aS'595'
p6621
aS'1907'
p6622
aS'3775'
p6623
aS'3276'
p6624
aS'13537'
p6625
aS'5599'
p6626
aS'3000'
p6627
aS'44358'
p6628
aS'559'
p6629
aS'2379'
p6630
aS'13744'
p6631
aS'16075'
p6632
aS'5000'
p6633
aS'102448'
p6634
aS'7811'
p6635
aS'1410'
p6636
aS'1197'
p6637
aS'2198'
p6638
aS'18931'
p6639
aS'2402'
p6640
aS'10533'
p6641
aS'12215'
p6642
aS'33677'
p6643
aS'12184'
p6644
aS'10981'
p6645
aS'10356'
p6646
aS'164351'
p6647
aS'28671'
p6648
aS'8373'
p6649
aS'36295'
p6650
aS'30634'
p6651
aS'5754'
p6652
aS'981'
p6653
aS'16435'
p6654
aS'129295'
p6655
aS'9806'
p6656
aS'47559'
p6657
aS'23665'
p6658
aS'3216'
p6659
aS'6524'
p6660
aS'2808'
p6661
aS'2812'
p6662
aS'10939'
p6663
aS'2778'
p6664
aS'5444'
p6665
aS'135985'
p6666
aS'6157'
p6667
aS'2947'
p6668
aS'8584'
p6669
aS'69306'
p6670
aS'18763'
p6671
aS'23200'
p6672
aS'2837'
p6673
aS'10749'
p6674
aS'5656'
p6675
aS'3152'
p6676
aS'7628'
p6677
aS'4965'
p6678
aS'8000'
p6679
aS'23017'
p6680
aS'52185'
p6681
aS'4088'
p6682
aS'7298'
p6683
aS'2233'
p6684
aS'3767'
p6685
aS'7482'
p6686
aS'5297'
p6687
aS'28992'
p6688
aS'1036'
p6689
aS'900'
p6690
aS'20733'
p6691
aS'5000'
p6692
aS'4516'
p6693
aS'3626'
p6694
aS'2354'
p6695
aS'50103'
p6696
aS'10884'
p6697
aS'2974'
p6698
aS'9259'
p6699
aS'5530'
p6700
aS'8829'
p6701
aS'619'
p6702
aS'1410'
p6703
aS'7520'
p6704
aS'1578'
p6705
aS'1292'
p6706
aS'5135'
p6707
aS'14667'
p6708
aS'1827'
p6709
aS'5204'
p6710
aS'118294'
p6711
aS'33777'
p6712
aS'14632'
p6713
aS'842'
p6714
aS'12376'
p6715
aS'4216'
p6716
aS'3517'
p6717
aS'6718'
p6718
aS'69389'
p6719
aS'9242'
p6720
aS'77982'
p6721
aS'7035'
p6722
aS'1951'
p6723
aS'21733'
p6724
aS'33843'
p6725
aS'8263'
p6726
aS'3700'
p6727
aS'12930'
p6728
aS'25460'
p6729
aS'4236'
p6730
aS'5226'
p6731
aS'23609'
p6732
aS'231964'
p6733
aS'10049'
p6734
aS'2718'
p6735
aS'6116'
p6736
aS'24077'
p6737
aS'25573'
p6738
aS'126028'
p6739
aS'3845'
p6740
aS'6658'
p6741
aS'20260'
p6742
aS'46111'
p6743
aS'10505'
p6744
aS'20717'
p6745
aS'5513'
p6746
aS'7511'
p6747
aS'8721'
p6748
aS'29514054'
p6749
aS'61552'
p6750
aS'16848'
p6751
aS'10673748'
p6752
aS'30570'
p6753
aS'2517'
p6754
aS'4236'
p6755
aS'28136'
p6756
aS'2608'
p6757
aS'24517'
p6758
aS'12230'
p6759
aS'9216'
p6760
aS'25535'
p6761
aS'10099'
p6762
aS'76123'
p6763
aS'20528'
p6764
aS'2245'
p6765
aS'11667'
p6766
aS'5093'
p6767
aS'3151'
p6768
aS'15215'
p6769
aS'26550'
p6770
aS'3644'
p6771
aS'4898'
p6772
aS'5546'
p6773
aS'15757'
p6774
aS'2167'
p6775
aS'10092'
p6776
aS'92257'
p6777
aS'5761'
p6778
aS'3710'
p6779
aS'642'
p6780
aS'281330'
p6781
aS'2991'
p6782
aS'2201'
p6783
aS'2186'
p6784
aS'2253'
p6785
aS'8378'
p6786
aS'24591'
p6787
aS'11473'
p6788
aS'7105'
p6789
aS'69007'
p6790
aS'1039220'
p6791
aS'36018'
p6792
aS'6764'
p6793
aS'12386'
p6794
aS'9527'
p6795
aS'1760'
p6796
aS'1519'
p6797
aS'7718'
p6798
aS'512'
p6799
aS'2671'
p6800
aS'32698'
p6801
aS'24435'
p6802
aS'51260'
p6803
aS'10304'
p6804
aS'3384'
p6805
aS'6911'
p6806
aS'8940'
p6807
aS'2200'
p6808
aS'7272'
p6809
aS'1242'
p6810
aS'21545'
p6811
aS'28699'
p6812
aS'5944'
p6813
aS'53571'
p6814
aS'15729'
p6815
aS'9456'
p6816
aS'7062'
p6817
aS'4835'
p6818
aS'12431'
p6819
aS'10481'
p6820
aS'18761'
p6821
aS'6260'
p6822
aS'17570'
p6823
aS'1998'
p6824
aS'3716'
p6825
aS'7308'
p6826
aS'3636'
p6827
aS'3936'
p6828
aS'4996'
p6829
aS'6554'
p6830
aS'3408'
p6831
aS'6498'
p6832
aS'16011'
p6833
aS'18211'
p6834
aS'7622'
p6835
aS'19302'
p6836
aS'4000'
p6837
aS'73497'
p6838
aS'9366'
p6839
aS'8899'
p6840
aS'7937'
p6841
aS'4395'
p6842
aS'1308'
p6843
aS'5487'
p6844
aS'5874'
p6845
aS'3694'
p6846
aS'5649'
p6847
aS'317'
p6848
aS'35292'
p6849
aS'10998'
p6850
aS'1468'
p6851
aS'10170'
p6852
aS'21705'
p6853
aS'4237'
p6854
aS'42035'
p6855
aS'1152'
p6856
aS'2158'
p6857
aS'60853'
p6858
aS'28250'
p6859
aS'42200'
p6860
aS'980'
p6861
aS'11251'
p6862
aS'11197'
p6863
aS'26840'
p6864
aS'11179'
p6865
aS'4216'
p6866
aS'35563'
p6867
aS'161115'
p6868
aS'390'
p6869
aS'21578'
p6870
aS'4516'
p6871
aS'32238'
p6872
aS'10827'
p6873
aS'15792'
p6874
aS'7100'
p6875
aS'20880'
p6876
aS'18102'
p6877
aS'5005'
p6878
aS'15162'
p6879
aS'39630'
p6880
aS'1735'
p6881
aS'3185'
p6882
aS'1088'
p6883
aS'17680'
p6884
aS'2568'
p6885
aS'37929'
p6886
aS'2179'
p6887
aS'10662'
p6888
aS'7359'
p6889
aS'134939'
p6890
aS'9129'
p6891
aS'27777'
p6892
aS'10337'
p6893
aS'12406'
p6894
aS'3078'
p6895
aS'18396'
p6896
aS'13046'
p6897
aS'8661'
p6898
aS'2699'
p6899
aS'2579'
p6900
aS'10200'
p6901
aS'8435'
p6902
aS'10776'
p6903
aS'19821'
p6904
aS'3274'
p6905
aS'1397'
p6906
aS'7877'
p6907
aS'2408'
p6908
aS'28606'
p6909
aS'7235'
p6910
aS'30953'
p6911
aS'4820'
p6912
aS'220633'
p6913
aS'6223'
p6914
aS'13305'
p6915
aS'1446'
p6916
aS'2759'
p6917
aS'4060'
p6918
aS'6539'
p6919
aS'23298'
p6920
aS'20492'
p6921
aS'5847'
p6922
aS'6410'
p6923
aS'2980'
p6924
aS'1764'
p6925
aS'13984'
p6926
aS'2622'
p6927
aS'67848'
p6928
aS'7300'
p6929
aS'7712'
p6930
aS'3465'
p6931
aS'2196'
p6932
aS'1718'
p6933
aS'13989'
p6934
aS'3604'
p6935
aS'21500'
p6936
aS'10350'
p6937
aS'20879'
p6938
aS'20100'
p6939
aS'257285'
p6940
aS'10802'
p6941
aS'11141'
p6942
aS'11437'
p6943
aS'1434'
p6944
aS'15815497'
p6945
aS'17414'
p6946
aS'740'
p6947
aS'15982'
p6948
aS'3635'
p6949
aS'5677'
p6950
aS'27125'
p6951
aS'3724'
p6952
aS'6570'
p6953
aS'27899'
p6954
aS'97043'
p6955
aS'9094'
p6956
aS'6500'
p6957
aS'6110'
p6958
aS'4570'
p6959
aS'16962'
p6960
aS'5071'
p6961
aS'543250'
p6962
aS'21078'
p6963
aS'1592'
p6964
aS'40952'
p6965
aS'2630'
p6966
aS'10740'
p6967
aS'357'
p6968
aS'5634'
p6969
aS'27853'
p6970
aS'4051'
p6971
aS'18885'
p6972
aS'658'
p6973
aS'45589'
p6974
aS'63520'
p6975
aS'4760'
p6976
aS'45138'
p6977
aS'7086'
p6978
aS'3769'
p6979
aS'7970'
p6980
aS'15500'
p6981
aS'39019'
p6982
aS'3413'
p6983
aS'6760'
p6984
aS'4691'
p6985
aS'2194'
p6986
aS'1492'
p6987
aS'6956'
p6988
aS'4856'
p6989
aS'11281'
p6990
aS'7685'
p6991
aS'15656'
p6992
aS'9100'
p6993
aS'3680'
p6994
aS'15100'
p6995
aS'14284'
p6996
aS'7882'
p6997
aS'5358'
p6998
aS'7513'
p6999
aS'2728'
p7000
aS'8625'
p7001
aS'8401'
p7002
aS'84025'
p7003
aS'86956'
p7004
aS'5225'
p7005
aS'4776267'
p7006
aS'18988'
p7007
aS'1008'
p7008
aS'36639'
p7009
aS'10413'
p7010
aS'7870'
p7011
aS'54596'
p7012
aS'4046'
p7013
aS'6500'
p7014
aS'789'
p7015
aS'3238'
p7016
aS'27823'
p7017
aS'45348'
p7018
aS'4100'
p7019
aS'7502'
p7020
aS'11307'
p7021
aS'11143'
p7022
aS'23893'
p7023
aS'17730'
p7024
aS'5026'
p7025
aS'17154'
p7026
aS'2369'
p7027
aS'75962'
p7028
aS'1819'
p7029
aS'4949'
p7030
aS'14108'
p7031
aS'35196'
p7032
aS'10524'
p7033
aS'7104'
p7034
aS'9220'
p7035
aS'1099'
p7036
aS'3888'
p7037
aS'17508'
p7038
aS'9383'
p7039
aS'1653'
p7040
aS'8218'
p7041
aS'1848'
p7042
aS'8044'
p7043
aS'3832'
p7044
aS'6027'
p7045
aS'8406'
p7046
aS'63700'
p7047
aS'4330'
p7048
aS'48024'
p7049
aS'1458'
p7050
aS'21189'
p7051
aS'3263'
p7052
aS'10537'
p7053
aS'3792'
p7054
aS'7923'
p7055
aS'9895'
p7056
aS'243796'
p7057
aS'8275'
p7058
aS'12085'
p7059
aS'4015'
p7060
aS'5682'
p7061
aS'13236'
p7062
aS'2983'
p7063
aS'20418'
p7064
aS'21858'
p7065
aS'3671'
p7066
aS'6319'
p7067
aS'42724'
p7068
aS'11515'
p7069
aS'3081'
p7070
aS'657292'
p7071
aS'6199'
p7072
aS'34000'
p7073
aS'24970'
p7074
aS'4845'
p7075
aS'2656'
p7076
aS'4632847'
p7077
aS'3609'
p7078
aS'12479'
p7079
aS'37140'
p7080
aS'5060'
p7081
aS'32847'
p7082
aS'3225'
p7083
aS'726'
p7084
aS'9291'
p7085
aS'2590'
p7086
aS'1629'
p7087
aS'249428'
p7088
aS'14321'
p7089
aS'9705'
p7090
aS'7473'
p7091
aS'12195'
p7092
aS'23865'
p7093
aS'6820'
p7094
aS'2880'
p7095
aS'4485'
p7096
aS'19320'
p7097
aS'12623'
p7098
aS'7000'
p7099
aS'1340'
p7100
aS'18395'
p7101
aS'4438'
p7102
aS'1492'
p7103
aS'14367'
p7104
aS'379'
p7105
aS'4286'
p7106
aS'2210'
p7107
aS'46359'
p7108
aS'2348'
p7109
aS'4778'
p7110
aS'9259'
p7111
aS'15292'
p7112
aS'116472'
p7113
aS'3100'
p7114
aS'48280'
p7115
aS'8635'
p7116
aS'63303'
p7117
aS'1325'
p7118
aS'2554'
p7119
aS'9532'
p7120
aS'11355'
p7121
aS'5069'
p7122
aS'8203'
p7123
aS'9423'
p7124
aS'139033'
p7125
aS'18422'
p7126
aS'21905'
p7127
aS'18300'
p7128
aS'15149'
p7129
aS'9993'
p7130
aS'44114'
p7131
aS'9574'
p7132
aS'6411'
p7133
aS'11927'
p7134
aS'4644'
p7135
aS'25007'
p7136
aS'13444'
p7137
aS'1772'
p7138
aS'3006'
p7139
aS'2958'
p7140
aS'1476'
p7141
aS'3085'
p7142
aS'2413'
p7143
aS'25588'
p7144
aS'1613'
p7145
aS'8435'
p7146
aS'92679'
p7147
aS'3100'
p7148
aS'4880'
p7149
aS'6100'
p7150
aS'12/13/13'
p7151
aS'11/24/06'
p7152
aS'10/26/07'
p7153
aS'6/4/08'
p7154
aS'6/17/11'
p7155
aS'1/8/14'
p7156
aS'12/4/09'
p7157
aS'4/25/08'
p7158
aS'6/18/10'
p7159
aS'7/31/09'
p7160
aS'5/21/99'
p7161
aS'6/9/06'
p7162
aS'1/31/14'
p7163
aS'2/27/02'
p7164
aS'10/31/08'
p7165
aS'12/2/05'
p7166
aS'7/1/05'
p7167
aS'7/23/04'
p7168
aS'3/1/13'
p7169
aS'1/9/04'
p7170
aS'9/21/12'
p7171
aS'4/27/11'
p7172
aS'4/22/11'
p7173
aS'9/30/11'
p7174
aS'9/24/04'
p7175
aS'5/27/11'
p7176
aS'6/3/11'
p7177
aS'9/20/13'
p7178
aS'1/7/04'
p7179
aS'12/12/14'
p7180
aS'10/21/05'
p7181
aS'3/14/08'
p7182
aS'7/23/04'
p7183
aS'5/30/08'
p7184
aS'3/17/06'
p7185
aS'10/29/08'
p7186
aS'12/28/11'
p7187
aS'12/25/13'
p7188
aS'6/12/13'
p7189
aS'11/4/11'
p7190
aS'1/17/14'
p7191
aS'3/13/09'
p7192
aS'1/23/04'
p7193
aS'7/30/10'
p7194
aS'6/23/04'
p7195
aS'5/10/13'
p7196
aS'1/18/12'
p7197
aS'11/7/14'
p7198
aS'10/24/01'
p7199
aS'11/5/04'
p7200
aS'9/6/13'
p7201
aS'6/26/02'
p7202
aS'12/20/06'
p7203
aS'10/22/08'
p7204
aS'1/28/09'
p7205
aS'1/18/08'
p7206
aS'3/28/08'
p7207
aS'6/15/07'
p7208
aS'8/12/05'
p7209
aS'11/7/03'
p7210
aS'5/12/06'
p7211
aS'8/10/05'
p7212
aS'2/13/98'
p7213
aS'10/29/10'
p7214
aS'4/5/13'
p7215
aS'6/28/06'
p7216
aS'12/7/07'
p7217
aS'7/8/11'
p7218
aS'7/29/11'
p7219
aS'5/20/09'
p7220
aS'10/21/05'
p7221
aS'6/2/06'
p7222
aS'2/29/12'
p7223
aS'11/15/06'
p7224
aS'6/6/14'
p7225
aS'4/11/08'
p7226
aS'6/4/04'
p7227
aS'9/17/97'
p7228
aS'7/31/09'
p7229
aS'9/24/93'
p7230
aS'8/23/02'
p7231
aS'5/7/10'
p7232
aS'6/15/07'
p7233
aS'11/24/05'
p7234
aS'8/1/08'
p7235
aS'8/3/12'
p7236
aS'1/21/09'
p7237
aS'9/14/07'
p7238
aS'4/25/03'
p7239
aS'6/3/88'
p7240
aS'2/10/12'
p7241
aS'7/27/07'
p7242
aS'3/5/04'
p7243
aS'10/10/08'
p7244
aS'10/3/07'
p7245
aS'7/13/12'
p7246
aS'1/27/95'
p7247
aS'9/9/11'
p7248
aS'7/27/06'
p7249
aS'4/12/13'
p7250
aS'1/3/97'
p7251
aS'7/31/13'
p7252
aS'6/20/12'
p7253
aS'11/27/91'
p7254
aS'7/3/13'
p7255
aS'12/10/14'
p7256
aS'11/8/02'
p7257
aS'8/8/14'
p7258
aS'11/24/10'
p7259
aS'1/6/95'
p7260
aS'4/10/09'
p7261
aS'5/28/04'
p7262
aS'11/7/14'
p7263
aS'3/7/08'
p7264
aS'3/2/07'
p7265
aS'9/15/06'
p7266
aS'5/23/08'
p7267
aS'10/10/14'
p7268
aS'3/2/12'
p7269
aS'11/22/13'
p7270
aS'9/14/12'
p7271
aS'6/3/09'
p7272
aS'10/8/10'
p7273
aS'12/7/07'
p7274
aS'7/5/12'
p7275
aS'7/21/06'
p7276
aS'10/21/11'
p7277
aS'10/20/98'
p7278
aS'2/1/13'
p7279
aS'1/25/08'
p7280
aS'8/22/14'
p7281
aS'3/28/14'
p7282
aS'2/17/12'
p7283
aS'4/18/08'
p7284
aS'11/4/09'
p7285
aS'3/27/09'
p7286
aS'6/1/11'
p7287
aS'7/25/08'
p7288
aS'10/1/10'
p7289
aS'9/5/14'
p7290
aS'6/22/94'
p7291
aS'2/24/06'
p7292
aS'1/4/13'
p7293
aS'11/22/13'
p7294
aS'1/31/86'
p7295
aS'10/10/14'
p7296
aS'4/12/06'
p7297
aS'4/27/12'
p7298
aS'3/18/09'
p7299
aS'11/29/13'
p7300
aS'1/29/10'
p7301
aS'9/12/07'
p7302
aS'4/17/98'
p7303
aS'11/2/07'
p7304
aS'7/23/03'
p7305
aS'10/20/95'
p7306
aS'12/9/11'
p7307
aS'3/7/08'
p7308
aS'3/12/04'
p7309
aS'6/13/14'
p7310
aS'3/7/08'
p7311
aS'10/5/07'
p7312
aS'4/29/94'
p7313
aS'7/25/08'
p7314
aS'11/12/10'
p7315
aS'3/22/13'
p7316
aS'2/11/11'
p7317
aS'8/24/12'
p7318
aS'9/4/14'
p7319
aS'4/22/88'
p7320
aS'9/16/11'
p7321
aS'10/21/05'
p7322
aS'4/16/04'
p7323
aS'10/21/11'
p7324
aS'4/27/12'
p7325
aS'4/18/14'
p7326
aS'2/9/01'
p7327
aS'9/27/13'
p7328
aS'7/18/14'
p7329
aS'4/15/11'
p7330
aS'1/20/12'
p7331
aS'12/4/09'
p7332
aS'6/4/10'
p7333
aS'7/12/13'
p7334
aS'10/26/12'
p7335
aS'6/24/05'
p7336
aS'4/18/08'
p7337
aS'3/3/99'
p7338
aS'4/8/11'
p7339
aS'8/31/11'
p7340
aS'4/23/04'
p7341
aS'12/3/04'
p7342
aS'10/27/06'
p7343
aS'10/28/05'
p7344
aS'6/12/09'
p7345
aS'12/25/12'
p7346
aS'7/9/97'
p7347
aS'7/1/11'
p7348
aS'7/27/12'
p7349
aS'9/1/89'
p7350
aS'5/30/12'
p7351
aS'12/22/10'
p7352
aS'9/16/11'
p7353
aS'3/29/13'
p7354
aS'4/18/08'
p7355
aS'1/15/92'
p7356
aS'9/19/03'
p7357
aS'7/20/12'
p7358
aS'6/1/07'
p7359
aS'7/7/06'
p7360
aS'5/25/12'
p7361
aS'9/12/14'
p7362
aS'7/2/10'
p7363
aS'4/22/10'
p7364
aS'5/28/04'
p7365
aS'12/12/07'
p7366
aS'8/18/99'
p7367
aS'6/17/11'
p7368
aS'3/5/08'
p7369
aS'10/26/12'
p7370
aS'3/17/04'
p7371
aS'8/3/12'
p7372
aS'6/4/10'
p7373
aS'6/3/11'
p7374
aS'9/19/14'
p7375
aS'7/29/05'
p7376
aS'10/3/12'
p7377
aS'6/12/09'
p7378
aS'3/14/14'
p7379
aS'10/11/02'
p7380
aS'7/15/11'
p7381
aS'6/13/14'
p7382
aS'1/13/12'
p7383
aS'1/12/07'
p7384
aS'3/7/97'
p7385
aS'4/3/13'
p7386
aS'2/27/98'
p7387
aS'3/8/13'
p7388
aS'4/21/95'
p7389
aS'9/9/09'
p7390
aS'10/19/12'
p7391
aS'9/19/12'
p7392
aS'7/2/09'
p7393
aS'4/20/07'
p7394
aS'9/9/92'
p7395
aS'7/21/10'
p7396
aS'10/19/07'
p7397
aS'1/18/85'
p7398
aS'1/21/05'
p7399
aS'12/2/05'
p7400
aS'4/7/06'
p7401
aS'4/24/09'
p7402
aS'3/31/95'
p7403
aS'10/11/13'
p7404
aS'10/4/13'
p7405
aS'8/3/12'
p7406
aS'8/17/07'
p7407
aS'7/26/06'
p7408
aS'3/31/06'
p7409
aS'5/7/04'
p7410
aS'11/26/04'
p7411
aS'4/8/05'
p7412
aS'10/12/07'
p7413
aS'5/13/11'
p7414
aS'3/7/14'
p7415
aS'6/13/08'
p7416
aS'3/28/12'
p7417
aS'9/7/07'
p7418
aS'11/17/99'
p7419
aS'8/16/13'
p7420
aS'6/21/06'
p7421
aS'12/7/12'
p7422
aS'4/13/12'
p7423
aS'3/18/94'
p7424
aS'11/3/93'
p7425
aS'2/24/93'
p7426
aS'5/30/14'
p7427
aS'2/17/12'
p7428
aS'9/20/02'
p7429
aS'7/13/12'
p7430
aS'4/20/12'
p7431
aS'10/6/04'
p7432
aS'7/31/09'
p7433
aS'3/19/14'
p7434
aS'4/4/08'
p7435
aS'1/12/00'
p7436
aS'10/31/08'
p7437
aS'3/30/12'
p7438
aS'4/10/98'
p7439
aS'9/25/13'
p7440
aS'9/12/08'
p7441
aS'9/17/10'
p7442
aS'9/20/13'
p7443
aS'1/2/15'
p7444
aS'7/27/12'
p7445
aS'2/16/96'
p7446
aS'11/1/13'
p7447
aS'5/10/02'
p7448
aS'10/11/02'
p7449
aS'6/2/06'
p7450
aS'3/26/04'
p7451
aS'8/26/88'
p7452
aS'5/21/10'
p7453
aS'5/4/12'
p7454
aS'3/9/07'
p7455
aS'4/1/11'
p7456
aS'2/4/05'
p7457
aS'9/5/14'
p7458
aS'7/29/11'
p7459
aS'4/18/03'
p7460
aS'3/21/97'
p7461
aS'6/10/05'
p7462
aS'7/25/08'
p7463
aS'9/6/13'
p7464
aS'11/4/05'
p7465
aS'9/15/06'
p7466
aS'3/7/13'
p7467
aS'8/24/12'
p7468
aS'11/9/05'
p7469
aS'4/18/08'
p7470
aS'11/17/10'
p7471
aS'4/5/13'
p7472
aS'9/20/13'
p7473
aS'6/29/12'
p7474
aS'9/12/14'
p7475
aS'5/23/07'
p7476
aS'4/25/14'
p7477
aS'7/8/11'
p7478
aS'3/7/01'
p7479
aS'7/16/10'
p7480
aS'7/16/93'
p7481
aS'8/18/95'
p7482
aS'5/7/04'
p7483
aS'6/17/11'
p7484
aS'4/30/99'
p7485
aS'9/1/06'
p7486
aS'11/4/05'
p7487
aS'7/28/06'
p7488
aS'8/22/14'
p7489
aS'7/31/09'
p7490
aS'10/26/07'
p7491
aS'5/11/07'
p7492
aS'6/13/08'
p7493
aS'9/27/13'
p7494
aS'10/24/03'
p7495
aS'10/10/14'
p7496
aS'10/2/09'
p7497
aS'3/23/05'
p7498
aS'2/9/07'
p7499
aS'11/14/08'
p7500
aS'11/1/13'
p7501
aS'7/8/05'
p7502
aS'8/24/07'
p7503
aS'2/29/08'
p7504
aS'11/22/02'
p7505
aS'10/12/12'
p7506
aS'4/2/03'
p7507
aS'11/7/86'
p7508
aS'8/17/12'
p7509
aS'10/5/12'
p7510
aS'3/26/10'
p7511
aS'7/20/11'
p7512
aS'5/30/08'
p7513
aS'8/9/91'
p7514
aS'8/25/06'
p7515
aS'12/3/10'
p7516
aS'7/25/12'
p7517
aS'6/19/02'
p7518
aS'3/5/99'
p7519
aS'7/27/11'
p7520
aS'6/27/14'
p7521
aS'11/7/08'
p7522
aS'7/19/13'
p7523
aS'5/2/14'
p7524
aS'9/30/11'
p7525
aS'5/30/14'
p7526
aS'9/15/00'
p7527
aS'7/1/11'
p7528
aS'1/24/14'
p7529
aS'7/27/07'
p7530
aS'9/29/06'
p7531
aS'4/22/09'
p7532
aS'2/1/13'
p7533
aS'2/20/09'
p7534
aS'6/28/13'
p7535
aS'5/31/13'
p7536
aS'6/11/04'
p7537
aS'10/9/96'
p7538
aS'5/6/05'
p7539
aS'11/6/09'
p7540
aS'9/30/11'
p7541
aS'9/8/06'
p7542
aS'3/13/09'
p7543
aS'4/14/00'
p7544
aS'6/26/13'
p7545
aS'12/7/12'
p7546
aS'10/24/14'
p7547
aS'9/21/01'
p7548
aS'7/31/92'
p7549
aS'12/20/13'
p7550
aS'9/16/11'
p7551
aS'6/19/09'
p7552
aS'11/23/07'
p7553
aS'5/2/14'
p7554
aS'10/1/04'
p7555
aS'9/17/14'
p7556
aS'4/26/02'
p7557
aS'4/7/00'
p7558
aS'11/21/07'
p7559
aS'7/20/05'
p7560
aS'8/19/88'
p7561
aS'7/21/00'
p7562
aS'2/2/11'
p7563
aS'5/16/14'
p7564
aS'7/13/05'
p7565
aS'7/8/11'
p7566
aS'10/18/13'
p7567
aS'10/2/09'
p7568
aS'10/8/03'
p7569
aS'2/10/06'
p7570
aS'8/30/13'
p7571
aS'8/30/13'
p7572
aS'7/12/06'
p7573
aS'7/4/14'
p7574
aS'3/5/14'
p7575
aS'9/13/13'
p7576
aS'11/21/14'
p7577
aS'5/9/12'
p7578
aS'4/25/12'
p7579
aS'2/23/96'
p7580
aS'3/23/07'
p7581
aS'4/22/05'
p7582
aS'12/12/12'
p7583
aS'10/24/14'
p7584
aS'12/10/10'
p7585
aS'11/16/12'
p7586
aS'10/11/02'
p7587
aS'1/20/12'
p7588
aS'12/8/06'
p7589
aS'10/6/06'
p7590
aS'11/29/13'
p7591
aS'8/17/07'
p7592
aS'2/11/05'
p7593
aS'10/5/01'
p7594
aS'10/28/11'
p7595
aS'2/24/06'
p7596
aS'7/4/08'
p7597
aS'2/2/07'
p7598
aS'4/26/95'
p7599
aS'5/11/01'
p7600
aS'5/5/06'
p7601
aS'11/13/09'
p7602
aS'3/27/09'
p7603
aS'1/31/14'
p7604
aS'5/20/05'
p7605
aS'2/19/03'
p7606
aS'10/1/04'
p7607
aS'3/2/12'
p7608
aS'5/8/09'
p7609
aS'2/3/12'
p7610
aS'4/19/13'
p7611
aS'4/9/10'
p7612
aS'5/27/05'
p7613
aS'11/28/14'
p7614
aS'10/24/08'
p7615
aS'9/2/11'
p7616
aS'10/24/01'
p7617
aS'11/8/13'
p7618
aS'12/10/03'
p7619
aS'10/12/01'
p7620
aS'11/10/06'
p7621
aS'7/11/08'
p7622
aS'8/22/08'
p7623
aS'6/13/12'
p7624
aS'1/31/07'
p7625
aS'6/21/13'
p7626
aS'8/20/14'
p7627
aS'8/28/09'
p7628
aS'1/31/14'
p7629
aS'6/15/12'
p7630
aS'9/23/11'
p7631
aS'4/11/14'
p7632
aS'10/8/10'
p7633
aS'2/7/14'
p7634
aS'12/7/12'
p7635
aS'6/25/10'
p7636
aS'6/27/08'
p7637
aS'10/19/12'
p7638
aS'2/19/03'
p7639
aS'10/21/05'
p7640
aS'7/17/02'
p7641
aS'5/1/09'
p7642
aS'4/9/08'
p7643
aS'2/27/09'
p7644
aS'12/11/13'
p7645
aS'9/10/10'
p7646
aS'9/11/09'
p7647
aS'4/24/09'
p7648
aS'6/27/14'
p7649
aS'12/23/11'
p7650
aS'10/21/11'
p7651
aS'9/16/05'
p7652
aS'6/25/99'
p7653
aS'8/13/04'
p7654
aS'11/9/07'
p7655
aS'10/4/13'
p7656
aS'1/13/11'
p7657
aS'6/26/98'
p7658
aS'7/31/09'
p7659
aS'8/12/05'
p7660
aS'10/27/10'
p7661
aS'12/29/99'
p7662
aS'6/22/12'
p7663
aS'3/17/06'
p7664
aS'7/4/07'
p7665
aS'6/24/05'
p7666
aS'11/21/08'
p7667
aS'3/14/03'
p7668
aS'2/10/06'
p7669
aS'5/23/08'
p7670
aS'10/4/13'
p7671
aS'2/6/09'
p7672
aS'4/4/14'
p7673
aS'4/26/13'
p7674
aS'8/4/95'
p7675
aS'10/24/07'
p7676
aS'6/14/13'
p7677
aS'11/22/13'
p7678
aS'11/1/13'
p7679
aS'7/2/10'
p7680
aS'9/19/01'
p7681
aS'8/25/95'
p7682
aS'7/31/98'
p7683
aS'4/4/14'
p7684
aS'4/17/09'
p7685
aS'9/9/09'
p7686
aS'8/20/04'
p7687
aS'2/8/08'
p7688
aS'12/19/03'
p7689
aS'5/30/03'
p7690
aS'10/5/07'
p7691
aS'2/25/05'
p7692
aS'3/4/11'
p7693
aS'4/4/14'
p7694
aS'11/19/10'
p7695
aS'10/1/89'
p7696
aS'10/17/14'
p7697
aS'2/9/05'
p7698
aS'8/29/03'
p7699
aS'10/5/07'
p7700
aS'5/30/14'
p7701
aS'10/7/88'
p7702
aS'6/27/08'
p7703
aS'9/24/10'
p7704
aS'4/19/06'
p7705
aS'9/7/07'
p7706
aS'6/6/08'
p7707
aS'5/13/11'
p7708
aS'8/16/13'
p7709
aS'1/19/05'
p7710
aS'9/21/12'
p7711
aS'6/16/01'
p7712
aS'5/14/04'
p7713
aS'4/17/13'
p7714
aS'1/7/11'
p7715
aS'5/5/95'
p7716
aS'10/5/90'
p7717
aS'9/24/04'
p7718
aS'6/22/07'
p7719
aS'9/12/14'
p7720
aS'10/11/06'
p7721
aS'5/11/07'
p7722
aS'3/15/02'
p7723
aS'9/15/10'
p7724
aS'6/21/13'
p7725
aS'5/24/13'
p7726
aS'12/22/06'
p7727
aS'2/15/02'
p7728
aS'2/24/06'
p7729
aS'5/27/09'
p7730
aS'7/13/12'
p7731
aS'6/7/13'
p7732
aS'8/18/10'
p7733
aS'10/27/06'
p7734
aS'7/15/11'
p7735
aS'2/6/04'
p7736
aS'5/7/10'
p7737
aS'7/18/14'
p7738
aS'4/16/10'
p7739
aS'7/29/11'
p7740
aS'3/15/96'
p7741
aS'12/8/04'
p7742
aS'12/29/10'
p7743
aS'10/22/04'
p7744
aS'4/6/12'
p7745
aS'8/23/02'
p7746
aS'5/18/11'
p7747
aS'1/6/10'
p7748
aS'3/27/09'
p7749
aS'11/17/06'
p7750
aS'6/29/05'
p7751
aS'7/31/13'
p7752
aS'8/18/06'
p7753
aS'10/1/04'
p7754
aS'7/26/02'
p7755
aS'11/30/07'
p7756
aS'1/24/14'
p7757
aS'7/18/97'
p7758
aS'3/14/07'
p7759
aS'5/13/11'
p7760
aS'6/29/07'
p7761
aS'3/26/04'
p7762
aS'11/20/09'
p7763
aS'10/1/08'
p7764
aS'12/22/04'
p7765
aS'10/19/05'
p7766
aS'6/1/12'
p7767
aS'8/24/12'
p7768
aS'2/23/07'
p7769
aS'8/17/05'
p7770
aS'5/8/92'
p7771
aS'11/23/12'
p7772
aS'7/17/09'
p7773
aS'11/30/07'
p7774
aS'10/4/13'
p7775
aS'9/15/06'
p7776
aS'8/16/00'
p7777
aS'1/17/03'
p7778
aS'3/2/07'
p7779
aS'5/9/08'
p7780
aS'11/18/11'
p7781
aS'7/25/07'
p7782
aS'5/16/14'
p7783
aS'7/9/04'
p7784
aS'8/4/06'
p7785
aS'4/23/04'
p7786
aS'2/18/11'
p7787
aS'8/13/10'
p7788
aS'2/17/94'
p7789
aS'4/23/10'
p7790
aS'11/16/12'
p7791
aS'7/18/14'
p7792
aS'4/29/11'
p7793
aS'4/15/11'
p7794
aS'6/3/05'
p7795
aS'12/22/89'
p7796
aS'8/8/08'
p7797
aS'7/10/98'
p7798
aS'10/24/14'
p7799
aS'1/11/08'
p7800
aS'10/25/13'
p7801
aS'8/10/07'
p7802
aS'3/28/14'
p7803
aS'10/16/09'
p7804
aS'7/23/10'
p7805
aS'3/31/12'
p7806
aS'10/8/10'
p7807
aS'3/14/12'
p7808
aS'10/14/11'
p7809
aS'2/28/14'
p7810
aS'3/28/14'
p7811
aS'5/3/02'
p7812
aS'12/7/12'
p7813
aS'5/23/14'
p7814
aS'1/11/06'
p7815
aS'5/15/13'
p7816
aS'9/20/11'
p7817
aS'4/25/07'
p7818
aS'9/4/13'
p7819
aS'2/8/13'
p7820
aS'9/17/10'
p7821
aS'10/5/01'
p7822
aS'3/21/08'
p7823
aS'9/13/06'
p7824
aS'5/3/13'
p7825
aS'3/16/11'
p7826
aS'7/7/06'
p7827
aS'5/10/13'
p7828
aS'9/27/02'
p7829
aS'6/11/10'
p7830
aS'6/4/04'
p7831
aS'9/12/14'
p7832
aS'10/27/06'
p7833
aS'10/29/04'
p7834
aS'10/19/11'
p7835
aS'6/8/12'
p7836
aS'6/11/10'
p7837
aS'10/17/08'
p7838
aS'10/29/10'
p7839
aS'11/11/11'
p7840
aS'10/3/97'
p7841
aS'7/9/08'
p7842
aS'7/1/99'
p7843
aS'11/1/06'
p7844
aS'1/15/02'
p7845
aS'9/26/08'
p7846
aS'1/26/07'
p7847
aS'5/11/12'
p7848
aS'8/8/03'
p7849
aS'9/13/13'
p7850
aS'9/13/13'
p7851
aS'2/22/02'
p7852
aS'4/5/13'
p7853
aS'11/28/03'
p7854
aS'10/1/14'
p7855
aS'2/18/05'
p7856
aS'10/3/07'
p7857
aS'3/13/09'
p7858
aS'4/4/14'
p7859
aS'8/8/12'
p7860
aS'6/24/05'
p7861
aS'3/14/14'
p7862
aS'6/6/14'
p7863
aS'8/20/10'
p7864
aS'8/27/93'
p7865
aS'8/2/13'
p7866
aS'9/5/14'
p7867
aS'1/19/07'
p7868
aS'10/20/06'
p7869
aS'4/10/09'
p7870
aS'11/8/13'
p7871
aS'9/16/11'
p7872
aS'2/21/14'
p7873
aS'1/27/12'
p7874
aS'1/20/12'
p7875
aS'4/25/14'
p7876
aS'7/6/12'
p7877
aS'10/29/14'
p7878
aS'10/27/06'
p7879
aS'3/31/10'
p7880
aS'11/7/03'
p7881
aS'9/23/11'
p7882
aS'1/18/13'
p7883
aS'5/11/07'
p7884
aS'6/15/07'
p7885
aS'7/21/06'
p7886
aS'2/1/06'
p7887
aS'7/13/07'
p7888
aS'9/3/04'
p7889
aS'11/29/13'
p7890
aS'9/25/02'
p7891
aS'9/26/08'
p7892
aS'3/26/10'
p7893
aS'4/22/11'
p7894
aS'11/1/89'
p7895
aS'5/22/09'
p7896
aS'7/22/05'
p7897
aS'1/20/06'
p7898
aS'11/2/07'
p7899
aS'10/9/09'
p7900
aS'9/17/10'
p7901
aS'6/24/11'
p7902
aS'6/5/09'
p7903
aS'8/6/04'
p7904
aS'12/10/10'
p7905
aS'5/18/12'
p7906
aS'10/21/05'
p7907
aS'10/11/96'
p7908
aS'11/13/09'
p7909
aS'6/14/13'
p7910
aS'9/19/14'
p7911
aS'7/27/07'
p7912
aS'10/11/13'
p7913
aS'10/2/13'
p7914
aS'12/8/06'
p7915
aS'9/23/09'
p7916
aS'11/5/14'
p7917
aS'3/2/12'
p7918
aS'6/8/12'
p7919
aS'6/9/04'
p7920
aS'3/8/13'
p7921
aS'5/9/14'
p7922
aS'1/21/05'
p7923
aS'5/9/08'
p7924
aS'11/5/99'
p7925
aS'7/21/00'
p7926
aS'12/5/14'
p7927
aS'10/25/13'
p7928
aS'10/23/09'
p7929
aS'1/13/06'
p7930
aS'9/14/05'
p7931
aS'2/11/11'
p7932
aS'2/1/13'
p7933
aS'7/29/05'
p7934
aS'4/20/12'
p7935
aS'11/23/12'
p7936
aS'2/27/04'
p7937
aS'3/5/04'
p7938
aS'6/3/05'
p7939
aS'10/5/12'
p7940
aS'10/1/04'
p7941
aS'10/26/05'
p7942
aS'1/24/03'
p7943
aS'11/24/04'
p7944
aS'6/20/03'
p7945
aS'11/30/12'
p7946
aS'9/19/03'
p7947
aS'5/4/05'
p7948
aS'11/11/09'
p7949
aS'4/11/03'
p7950
aS'8/17/07'
p7951
aS'9/11/09'
p7952
aS'5/9/14'
p7953
aS'3/21/08'
p7954
aS'9/5/12'
p7955
aS'4/18/08'
p7956
aS'4/1/05'
p7957
aS'6/18/04'
p7958
aS'2/18/11'
p7959
aS'3/1/13'
p7960
aS'5/16/03'
p7961
aS'4/11/08'
p7962
aS'8/5/05'
p7963
aS'5/24/06'
p7964
aS'1/19/01'
p7965
aS'6/15/07'
p7966
aS'4/25/12'
p7967
aS'3/10/06'
p7968
aS'8/31/07'
p7969
aS'2/24/06'
p7970
aS'10/23/02'
p7971
aS'8/2/13'
p7972
aS'9/22/89'
p7973
aS'10/9/09'
p7974
aS'3/21/14'
p7975
aS'10/6/06'
p7976
aS'9/18/09'
p7977
aS'11/16/07'
p7978
aS'5/9/07'
p7979
aS'9/10/99'
p7980
aS'2/8/08'
p7981
aS'8/22/03'
p7982
aS'3/2/12'
p7983
aS'9/12/14'
p7984
aS'11/8/06'
p7985
aS'9/23/11'
p7986
aS'11/25/11'
p7987
aS'9/28/07'
p7988
aS'9/30/11'
p7989
aS'5/26/04'
p7990
aS'5/17/02'
p7991
aS'8/10/11'
p7992
aS'9/25/09'
p7993
aS'6/25/10'
p7994
aS'6/9/00'
p7995
aS'10/4/06'
p7996
aS'1/20/06'
p7997
aS'6/16/10'
p7998
aS'8/27/14'
p7999
aS'11/18/05'
p8000
aS'9/9/11'
p8001
aS'8/8/14'
p8002
aS'1/25/13'
p8003
aS'10/19/12'
p8004
aS'2/23/11'
p8005
aS'6/3/11'
p8006
aS'5/13/11'
p8007
aS'5/13/11'
p8008
aS'9/23/11'
p8009
aS'4/10/98'
p8010
aS'6/7/13'
p8011
aS'3/19/10'
p8012
aS'9/30/09'
p8013
aS'6/12/09'
p8014
aS'10/28/11'
p8015
aS'10/26/12'
p8016
aS'1/5/11'
p8017
aS'2/3/95'
p8018
aS'7/10/09'
p8019
aS'11/30/12'
p8020
aS'8/12/11'
p8021
aS'8/16/13'
p8022
aS'5/4/12'
p8023
aS'4/19/13'
p8024
aS'9/8/04'
p8025
aS'11/26/14'
p8026
aS'7/28/06'
p8027
aS'1/19/11'
p8028
aS'4/16/10'
p8029
aS'11/1/13'
p8030
aS'10/17/14'
p8031
aS'4/29/11'
p8032
aS'8/22/03'
p8033
aS'11/29/13'
p8034
aS'7/5/95'
p8035
aS'6/27/14'
p8036
aS'4/25/08'
p8037
aS'3/9/12'
p8038
aS'9/21/12'
p8039
aS'2/2/07'
p8040
aS'8/17/07'
p8041
aS'9/21/12'
p8042
aS'9/19/14'
p8043
aS'2/29/08'
p8044
aS'6/9/06'
p8045
aS'10/12/07'
p8046
aS'3/7/14'
p8047
aS'11/9/07'
p8048
aS'12/3/04'
p8049
aS'6/9/95'
p8050
aS'10/12/93'
p8051
aS'5/16/14'
p8052
aS'5/31/00'
p8053
aS'2/9/07'
p8054
aS'11/28/14'
p8055
aS'10/18/06'
p8056
aS'11/4/11'
p8057
aS'6/27/07'
p8058
aS'11/2/07'
p8059
aS'9/22/06'
p8060
aS'7/28/04'
p8061
aS'9/15/10'
p8062
aS'5/3/13'
p8063
aS'1/28/05'
p8064
aS'10/1/04'
p8065
aS'12/12/14'
p8066
aS'3/23/11'
p8067
aS'4/25/14'
p8068
aS'11/12/03'
p8069
aS'3/28/14'
p8070
aS'9/13/13'
p8071
aS'3/28/03'
p8072
aS'7/2/04'
p8073
aS'6/20/07'
p8074
aS'3/21/08'
p8075
aS'6/13/08'
p8076
aS'4/22/11'
p8077
aS'8/18/06'
p8078
aS'10/14/94'
p8079
aS'8/29/12'
p8080
aS'5/12/06'
p8081
aS'6/17/11'
p8082
aS'1/8/10'
p8083
aS'6/6/14'
p8084
aS'9/7/05'
p8085
aS'7/26/02'
p8086
aS'9/28/12'
p8087
aS'7/7/06'
p8088
aS'8/14/09'
p8089
aS'8/10/01'
p8090
aS'8/14/09'
p8091
aS'8/22/08'
p8092
aS'1/13/06'
p8093
aS'10/5/12'
p8094
aS'4/30/04'
p8095
aS'8/28/09'
p8096
aS'3/14/08'
p8097
aS'3/29/00'
p8098
aS'12/7/12'
p8099
aS'1/25/12'
p8100
aS'5/13/05'
p8101
aS'9/12/08'
p8102
aS'6/18/04'
p8103
aS'2/5/99'
p8104
aS'1/30/04'
p8105
aS'4/27/07'
p8106
aS'8/23/13'
p8107
aS'8/14/13'
p8108
aS'6/4/03'
p8109
aS'10/4/06'
p8110
aS'8/6/10'
p8111
aS'10/11/13'
p8112
aS'10/19/07'
p8113
aS'7/14/04'
p8114
aS'8/22/14'
p8115
aS'1/9/13'
p8116
aS'4/6/11'
p8117
aS'4/11/08'
p8118
aS'5/2/14'
p8119
aS'3/6/98'
p8120
aS'9/19/14'
p8121
aS'1/23/15'
p8122
aS'9/17/10'
p8123
aS'12/8/06'
p8124
aS'6/17/11'
p8125
aS'1/11/95'
p8126
aS'8/8/14'
p8127
aS'8/30/13'
p8128
aS'9/7/12'
p8129
aS'1/14/11'
p8130
aS'9/19/14'
p8131
aS'4/18/14'
p8132
aS'9/27/96'
p8133
aS'5/21/04'
p8134
aS'10/7/05'
p8135
aS'3/28/08'
p8136
aS'4/29/88'
p8137
aS'6/24/11'
p8138
aS'1/24/14'
p8139
aS'9/26/14'
p8140
aS'11/30/11'
p8141
aS'6/20/13'
p8142
aS'11/5/10'
p8143
aS'1/16/04'
p8144
aS'5/10/91'
p8145
aS'2/17/95'
p8146
aS'2/3/06'
p8147
aS'9/21/12'
p8148
aS'7/26/06'
p8149
aS'9/20/96'
p8150
aS'7/13/05'
p8151
aS'6/22/11'
p8152
aS'2/21/14'
p8153
aS'5/7/14'
p8154
aS'10/10/14'
p8155
aS'8/27/04'
p8156
aS'7/25/08'
p8157
aS'3/4/05'
p8158
aS'8/15/14'
p8159
aS'6/28/06'
p8160
aS'9/26/12'
p8161
aS'10/7/05'
p8162
aS'3/1/06'
p8163
aS'9/20/13'
p8164
aS'2/26/10'
p8165
aS'10/5/11'
p8166
aS'5/9/08'
p8167
aS'4/5/13'
p8168
aS'3/23/07'
p8169
aS'10/7/11'
p8170
aS'8/17/12'
p8171
aS'9/6/13'
p8172
aS'9/23/98'
p8173
aS'3/27/09'
p8174
aS'10/13/06'
p8175
aS'10/5/12'
p8176
aS'9/6/06'
p8177
aS'9/13/13'
p8178
aS'9/11/13'
p8179
aS'5/4/12'
p8180
aS'4/27/12'
p8181
aS'3/11/11'
p8182
aS'8/8/14'
p8183
aS'9/22/04'
p8184
aS'2/1/08'
p8185
aS'8/21/92'
p8186
aS'9/6/13'
p8187
aS'6/12/13'
p8188
aS'4/18/14'
p8189
aS'7/17/09'
p8190
aS'5/10/02'
p8191
aS'2/7/14'
p8192
aS'10/26/07'
p8193
aS'9/6/06'
p8194
aS'6/14/13'
p8195
aS'3/25/05'
p8196
aS'4/13/12'
p8197
aS'2/9/05'
p8198
aS'10/21/05'
p8199
aS'4/15/05'
p8200
aS'5/13/05'
p8201
aS'11/22/13'
p8202
aS'9/7/01'
p8203
aS'4/24/09'
p8204
aS'7/25/07'
p8205
aS'7/10/09'
p8206
aS'6/11/08'
p8207
aS'6/1/12'
p8208
aS'10/18/02'
p8209
aS'10/10/08'
p8210
aS'7/19/13'
p8211
aS'10/29/08'
p8212
aS'1/10/14'
p8213
aS'4/25/08'
p8214
aS'2/1/13'
p8215
aS'9/19/08'
p8216
aS'10/25/00'
p8217
aS'6/25/08'
p8218
aS'11/23/93'
p8219
aS'2/22/06'
p8220
aS'4/30/03'
p8221
aS'3/28/03'
p8222
aS'7/22/05'
p8223
aS'3/1/13'
p8224
aS'5/13/05'
p8225
aS'10/17/08'
p8226
aS'6/17/09'
p8227
aS'3/29/00'
p8228
aS'9/10/14'
p8229
aS'9/21/12'
p8230
aS'9/14/11'
p8231
aS'5/4/12'
p8232
aS'3/30/12'
p8233
aS'12/21/07'
p8234
aS'10/22/04'
p8235
aS'1/23/09'
p8236
aS'7/6/12'
p8237
aS'12/5/07'
p8238
aS'7/31/98'
p8239
aS'7/29/05'
p8240
aS'12/3/10'
p8241
aS'2/25/09'
p8242
aS'8/26/05'
p8243
aS'2/12/03'
p8244
aS'9/17/10'
p8245
aS'1/18/12'
p8246
aS'9/3/10'
p8247
aS'1/12/07'
p8248
aS'6/26/09'
p8249
aS'6/20/14'
p8250
aS'2/29/08'
p8251
aS'5/8/13'
p8252
aS'10/17/08'
p8253
aS'6/3/94'
p8254
aS'11/15/13'
p8255
aS'7/20/07'
p8256
aS'5/26/00'
p8257
aS'10/29/03'
p8258
aS'1/16/09'
p8259
aS'11/14/03'
p8260
aS'6/2/06'
p8261
aS'10/25/96'
p8262
aS'9/28/07'
p8263
aS'9/6/13'
p8264
aS'6/16/06'
p8265
aS'1/24/03'
p8266
aS'11/7/14'
p8267
aS'3/18/92'
p8268
aS'5/16/14'
p8269
aS'12/14/11'
p8270
aS'10/15/10'
p8271
aS'2/9/96'
p8272
aS'11/30/05'
p8273
aS'10/17/14'
p8274
aS'11/28/12'
p8275
aS'11/30/01'
p8276
aS'8/31/05'
p8277
aS'10/4/96'
p8278
aS'8/25/04'
p8279
aS'10/18/02'
p8280
aS'3/30/01'
p8281
aS'12/16/11'
p8282
aS'6/8/07'
p8283
aS'5/18/12'
p8284
aS'2/10/06'
p8285
aS'11/2/12'
p8286
aS'8/5/11'
p8287
aS'1/19/07'
p8288
aS'10/2/09'
p8289
aS'11/5/04'
p8290
aS'7/9/04'
p8291
aS'10/29/14'
p8292
aS'3/16/07'
p8293
aS'4/25/08'
p8294
aS'2/5/14'
p8295
aS'3/30/12'
p8296
aS'10/31/14'
p8297
aS'10/26/07'
p8298
aS'7/16/93'
p8299
aS'1/31/03'
p8300
aS'4/11/07'
p8301
aS'10/31/14'
p8302
aS'10/22/99'
p8303
aS'2/28/07'
p8304
aS'11/8/13'
p8305
aS'4/6/12'
p8306
aS'10/17/14'
p8307
aS'9/24/10'
p8308
aS'8/20/04'
p8309
aS'6/4/10'
p8310
aS'10/18/13'
p8311
aS'11/17/00'
p8312
aS'8/6/08'
p8313
aS'3/21/14'
p8314
aS'1/9/08'
p8315
aS'5/23/03'
p8316
aS'8/20/04'
p8317
aS'9/9/11'
p8318
aS'9/13/00'
p8319
aS'4/22/05'
p8320
aS'4/14/06'
p8321
aS'10/12/12'
p8322
aS'10/17/14'
p8323
aS'12/7/07'
p8324
aS'8/3/12'
p8325
aS'11/8/13'
p8326
aS'9/12/14'
p8327
aS'4/18/14'
p8328
aS'4/21/04'
p8329
aS'8/14/09'
p8330
aS'8/17/05'
p8331
aS'11/7/14'
p8332
aS'1/3/14'
p8333
atp8334
bag13
(g14
(I0
tp8335
g16
tp8336
Rp8337
(I1
(I1
I1183
tp8338
g20
(S'i8'
p8339
I0
I1
tp8340
Rp8341
(I3
S'<'
p8342
NNNI-1
I-1
I0
tp8343
bI00
S'\x02\x00\x00\x00\x00\x00\x00\x00\x01\x00\x00\x00\x00\x00\x00\x00\x01\x00\x00\x00\x00\x00\x00\x00\x01\x00\x00\x00\x00\x00\x00\x00\x05\x00\x00\x00\x00\x00\x00\x00\x01\x00\x00\x00\x00\x00\x00\x00\x01\x00\x00\x00\x00\x00\x00\x00\x01\x00\x00\x00\x00\x00\x00\x00\x10\x00\x00\x00\x00\x00\x00\x00\x02\x00\x00\x00\x00\x00\x00\x00S\x01\x00\x00\x00\x00\x00\x00\x01\x00\x00\x00\x00\x00\x00\x00\x01\x00\x00\x00\x00\x00\x00\x00\x02\x00\x00\x00\x00\x00\x00\x00\x01\x00\x00\x00\x00\x00\x00\x00\x01\x00\x00\x00\x00\x00\x00\x00\x02\x00\x00\x00\x00\x00\x00\x00\x01\x00\x00\x00\x00\x00\x00\x00\x01\x00\x00\x00\x00\x00\x00\x00\x03\x00\x00\x00\x00\x00\x00\x00\x04\x00\x00\x00\x00\x00\x00\x00\x01\x00\x00\x00\x00\x00\x00\x00\xc4\x04\x00\x00\x00\x00\x00\x00\x02\x00\x00\x00\x00\x00\x00\x00\x01\x00\x00\x00\x00\x00\x00\x00\x01\x00\x00\x00\x00\x00\x00\x00\x01\x00\x00\x00\x00\x00\x00\x00\x11\x00\x00\x00\x00\x00\x00\x00\x01\x00\x00\x00\x00\x00\x00\x00\x01\x00\x00\x00\x00\x00\x00\x00\x01\x00\x00\x00\x00\x00\x00\x00\x01\x00\x00\x00\x00\x00\x00\x00\x01\x00\x00\x00\x00\x00\x00\x00\x06\x00\x00\x00\x00\x00\x00\x00\x01\x00\x00\x00\x00\x00\x00\x00\x01\x00\x00\x00\x00\x00\x00\x00\x01\x00\x00\x00\x00\x00\x00\x00\r\x04\x00\x00\x00\x00\x00\x00\x10\x00\x00\x00\x00\x00\x00\x00\x02\x00\x00\x00\x00\x00\x00\x00\x01\x00\x00\x00\x00\x00\x00\x00\x02\x00\x00\x00\x00\x00\x00\x00\x05\x00\x00\x00\x00\x00\x00\x00\x01\x00\x00\x00\x00\x00\x00\x00d\x03\x00\x00\x00\x00\x00\x00\x02\x00\x00\x00\x00\x00\x00\x00\x01\x00\x00\x00\x00\x00\x00\x00\x01\x00\x00\x00\x00\x00\x00\x00\x01\x00\x00\x00\x00\x00\x00\x00\x05\x00\x00\x00\x00\x00\x00\x00\x01\x00\x00\x00\x00\x00\x00\x00\x01\x00\x00\x00\x00\x00\x00\x00\x01\x00\x00\x00\x00\x00\x00\x00\x01\x00\x00\x00\x00\x00\x00\x00\x01\x00\x00\x00\x00\x00\x00\x00\x02\x00\x00\x00\x00\x00\x00\x00\x07\x00\x00\x00\x00\x00\x00\x00\x01\x00\x00\x00\x00\x00\x00\x00\x1d\x00\x00\x00\x00\x00\x00\x00\x1b\x00\x00\x00\x00\x00\x00\x00\x02\x00\x00\x00\x00\x00\x00\x00\x01\x00\x00\x00\x00\x00\x00\x00\x02\x00\x00\x00\x00\x00\x00\x00\x01\x00\x00\x00\x00\x00\x00\x00\x01\x00\x00\x00\x00\x00\x00\x00\x01\x00\x00\x00\x00\x00\x00\x00\x01\x00\x00\x00\x00\x00\x00\x00\x04\x00\x00\x00\x00\x00\x00\x00\x01\x00\x00\x00\x00\x00\x00\x00\x01\x00\x00\x00\x00\x00\x00\x00\x01\x00\x00\x00\x00\x00\x00\x00\x01\x00\x00\x00\x00\x00\x00\x00\x05\x00\x00\x00\x00\x00\x00\x00\x02\x00\x00\x00\x00\x00\x00\x00\x01\x00\x00\x00\x00\x00\x00\x00\x17\x00\x00\x00\x00\x00\x00\x00\x02\x00\x00\x00\x00\x00\x00\x00\x07\x00\x00\x00\x00\x00\x00\x00\x02\x00\x00\x00\x00\x00\x00\x00\x02\x00\x00\x00\x00\x00\x00\x00\x01\x00\x00\x00\x00\x00\x00\x00\x16\x02\x00\x00\x00\x00\x00\x00\x01\x00\x00\x00\x00\x00\x00\x00\x01\x00\x00\x00\x00\x00\x00\x00\x01\x00\x00\x00\x00\x00\x00\x00\x01\x00\x00\x00\x00\x00\x00\x00\x01\x00\x00\x00\x00\x00\x00\x00\x01\x00\x00\x00\x00\x00\x00\x00\x01\x00\x00\x00\x00\x00\x00\x00\x15\x00\x00\x00\x00\x00\x00\x00\x03\x00\x00\x00\x00\x00\x00\x00\x02\x00\x00\x00\x00\x00\x00\x00\x01\x00\x00\x00\x00\x00\x00\x00\x0c\x00\x00\x00\x00\x00\x00\x00\x01\x00\x00\x00\x00\x00\x00\x00\x01\x00\x00\x00\x00\x00\x00\x00\x01\x00\x00\x00\x00\x00\x00\x00\x02\x00\x00\x00\x00\x00\x00\x00\x01\x00\x00\x00\x00\x00\x00\x00\x01\x00\x00\x00\x00\x00\x00\x00\x01\x00\x00\x00\x00\x00\x00\x00\x05\x00\x00\x00\x00\x00\x00\x00\x01\x00\x00\x00\x00\x00\x00\x00\x04\x00\x00\x00\x00\x00\x00\x00\x02\x00\x00\x00\x00\x00\x00\x00\x02\x00\x00\x00\x00\x00\x00\x00\x01\x00\x00\x00\x00\x00\x00\x000\x01\x00\x00\x00\x00\x00\x00\x01\x00\x00\x00\x00\x00\x00\x00\x01\x00\x00\x00\x00\x00\x00\x00\x03\x00\x00\x00\x00\x00\x00\x00\x01\x00\x00\x00\x00\x00\x00\x00\xe7\x00\x00\x00\x00\x00\x00\x00\x07\x00\x00\x00\x00\x00\x00\x00\x01\x00\x00\x00\x00\x00\x00\x00\x08\x00\x00\x00\x00\x00\x00\x00\x02\x00\x00\x00\x00\x00\x00\x00\x01\x00\x00\x00\x00\x00\x00\x00\x04\x00\x00\x00\x00\x00\x00\x00\x01\x00\x00\x00\x00\x00\x00\x00\x02\x00\x00\x00\x00\x00\x00\x00\x01\x00\x00\x00\x00\x00\x00\x00\x01\x00\x00\x00\x00\x00\x00\x00\x01\x00\x00\x00\x00\x00\x00\x00\xaa\n\x00\x00\x00\x00\x00\x00\x01\x00\x00\x00\x00\x00\x00\x00\x01\x00\x00\x00\x00\x00\x00\x00\x0b\x00\x00\x00\x00\x00\x00\x00\x10\x00\x00\x00\x00\x00\x00\x00\x15\x00\x00\x00\x00\x00\x00\x00\x16\x00\x00\x00\x00\x00\x00\x00\t\x00\x00\x00\x00\x00\x00\x00\x01\x00\x00\x00\x00\x00\x00\x00\x14\x00\x00\x00\x00\x00\x00\x00\x01\x00\x00\x00\x00\x00\x00\x00\xdd\x00\x00\x00\x00\x00\x00\x00\x02\x00\x00\x00\x00\x00\x00\x00\x02\x00\x00\x00\x00\x00\x00\x00\x14\x00\x00\x00\x00\x00\x00\x00\x02\x00\x00\x00\x00\x00\x00\x00\x01\x00\x00\x00\x00\x00\x00\x00\x02\x00\x00\x00\x00\x00\x00\x00\x01\x00\x00\x00\x00\x00\x00\x00\x01\x00\x00\x00\x00\x00\x00\x00\x01\x00\x00\x00\x00\x00\x00\x00\x0b\x00\x00\x00\x00\x00\x00\x00\x01\x00\x00\x00\x00\x00\x00\x00\x01\x00\x00\x00\x00\x00\x00\x00\x01\x00\x00\x00\x00\x00\x00\x00\x03\x00\x00\x00\x00\x00\x00\x00\x01\x00\x00\x00\x00\x00\x00\x00\x01\x00\x00\x00\x00\x00\x00\x00\x03\x00\x00\x00\x00\x00\x00\x00\x03\x00\x00\x00\x00\x00\x00\x00\x01\x00\x00\x00\x00\x00\x00\x00\x01\x00\x00\x00\x00\x00\x00\x00\x03\x00\x00\x00\x00\x00\x00\x00\x01\x00\x00\x00\x00\x00\x00\x00\x01\x00\x00\x00\x00\x00\x00\x00\x01\x00\x00\x00\x00\x00\x00\x00\x01\x00\x00\x00\x00\x00\x00\x00\x08\x00\x00\x00\x00\x00\x00\x00\x01\x00\x00\x00\x00\x00\x00\x00\x05\x00\x00\x00\x00\x00\x00\x00)\x00\x00\x00\x00\x00\x00\x00\x01\x00\x00\x00\x00\x00\x00\x00\x02\x00\x00\x00\x00\x00\x00\x00\x02\x00\x00\x00\x00\x00\x00\x00\x01\x00\x00\x00\x00\x00\x00\x00\x01\x00\x00\x00\x00\x00\x00\x00\x01\x00\x00\x00\x00\x00\x00\x00\x01\x00\x00\x00\x00\x00\x00\x00\x01\x00\x00\x00\x00\x00\x00\x00\x01\x00\x00\x00\x00\x00\x00\x00\x02\x00\x00\x00\x00\x00\x00\x00\x07\x00\x00\x00\x00\x00\x00\x00\x01\x00\x00\x00\x00\x00\x00\x00\x1c\x00\x00\x00\x00\x00\x00\x00\x19\x00\x00\x00\x00\x00\x00\x00\x01\x00\x00\x00\x00\x00\x00\x00\x01\x00\x00\x00\x00\x00\x00\x00\x01\x00\x00\x00\x00\x00\x00\x00\x01\x00\x00\x00\x00\x00\x00\x00\x01\x00\x00\x00\x00\x00\x00\x00\x03\x00\x00\x00\x00\x00\x00\x00\x04\x00\x00\x00\x00\x00\x00\x00\x02\x00\x00\x00\x00\x00\x00\x00\x03\x00\x00\x00\x00\x00\x00\x00\x01\x00\x00\x00\x00\x00\x00\x00\x01\x00\x00\x00\x00\x00\x00\x00\x07\x00\x00\x00\x00\x00\x00\x00\x01\x00\x00\x00\x00\x00\x00\x00\x13\x00\x00\x00\x00\x00\x00\x00\x05\x00\x00\x00\x00\x00\x00\x00\x03\x00\x00\x00\x00\x00\x00\x00\x05\x00\x00\x00\x00\x00\x00\x00\x01\x00\x00\x00\x00\x00\x00\x00\x02\x00\x00\x00\x00\x00\x00\x00\x03\x00\x00\x00\x00\x00\x00\x00\x01\x00\x00\x00\x00\x00\x00\x00\x01\x00\x00\x00\x00\x00\x00\x00\x01\x00\x00\x00\x00\x00\x00\x00\x01\x00\x00\x00\x00\x00\x00\x00\x02\x00\x00\x00\x00\x00\x00\x00\x1c\x04\x00\x00\x00\x00\x00\x00\x01\x00\x00\x00\x00\x00\x00\x00\x01\x00\x00\x00\x00\x00\x00\x00\x03\x00\x00\x00\x00\x00\x00\x00\x03\x00\x00\x00\x00\x00\x00\x00\x01\x00\x00\x00\x00\x00\x00\x00\x01\x00\x00\x00\x00\x00\x00\x00\x02\x00\x00\x00\x00\x00\x00\x00\x01\x00\x00\x00\x00\x00\x00\x00\xb6\x04\x00\x00\x00\x00\x00\x00\x05\x00\x00\x00\x00\x00\x00\x00\x01\x00\x00\x00\x00\x00\x00\x00\x01\x00\x00\x00\x00\x00\x00\x00\x02\x00\x00\x00\x00\x00\x00\x00\x01\x00\x00\x00\x00\x00\x00\x00\x01\x00\x00\x00\x00\x00\x00\x00\x01\x00\x00\x00\x00\x00\x00\x00\x01\x00\x00\x00\x00\x00\x00\x00\x01\x00\x00\x00\x00\x00\x00\x00\x01\x00\x00\x00\x00\x00\x00\x00\x01\x00\x00\x00\x00\x00\x00\x00\x01\x00\x00\x00\x00\x00\x00\x00\x01\x00\x00\x00\x00\x00\x00\x00\x03\x00\x00\x00\x00\x00\x00\x00\x01\x00\x00\x00\x00\x00\x00\x00\x04\x00\x00\x00\x00\x00\x00\x00\x0e\x00\x00\x00\x00\x00\x00\x00\x02\x00\x00\x00\x00\x00\x00\x00\x04\x00\x00\x00\x00\x00\x00\x00\x01\x00\x00\x00\x00\x00\x00\x00\x18\x01\x00\x00\x00\x00\x00\x00\x01\x00\x00\x00\x00\x00\x00\x00\x01\x00\x00\x00\x00\x00\x00\x002\x00\x00\x00\x00\x00\x00\x00\x01\x00\x00\x00\x00\x00\x00\x00\x03\x00\x00\x00\x00\x00\x00\x00\x03\x00\x00\x00\x00\x00\x00\x00\x01\x00\x00\x00\x00\x00\x00\x00\x03\x00\x00\x00\x00\x00\x00\x00\x01\x00\x00\x00\x00\x00\x00\x00\x01\x00\x00\x00\x00\x00\x00\x00\x01\x00\x00\x00\x00\x00\x00\x00\x01\x00\x00\x00\x00\x00\x00\x00\x8a\x03\x00\x00\x00\x00\x00\x00\x01\x00\x00\x00\x00\x00\x00\x00\xf3\x00\x00\x00\x00\x00\x00\x00\x02\x00\x00\x00\x00\x00\x00\x00\x0b\x00\x00\x00\x00\x00\x00\x00\x01\x00\x00\x00\x00\x00\x00\x00\x01\x00\x00\x00\x00\x00\x00\x00\x01\x00\x00\x00\x00\x00\x00\x00\x01\x00\x00\x00\x00\x00\x00\x00\x01\x00\x00\x00\x00\x00\x00\x00\x01\x00\x00\x00\x00\x00\x00\x00\x05\x00\x00\x00\x00\x00\x00\x00)\x00\x00\x00\x00\x00\x00\x00\x04\x00\x00\x00\x00\x00\x00\x00\x02\x00\x00\x00\x00\x00\x00\x00\x01\x00\x00\x00\x00\x00\x00\x00\x02\x00\x00\x00\x00\x00\x00\x00\x01\x00\x00\x00\x00\x00\x00\x00\x01\x00\x00\x00\x00\x00\x00\x00\x02\x00\x00\x00\x00\x00\x00\x00\x01\x00\x00\x00\x00\x00\x00\x00\x01\x00\x00\x00\x00\x00\x00\x00\x03\x00\x00\x00\x00\x00\x00\x00\x01\x00\x00\x00\x00\x00\x00\x00\x0b\x00\x00\x00\x00\x00\x00\x00\x01\x00\x00\x00\x00\x00\x00\x00\x01\x00\x00\x00\x00\x00\x00\x00\x01\x00\x00\x00\x00\x00\x00\x00\x02\x00\x00\x00\x00\x00\x00\x00\x01\x00\x00\x00\x00\x00\x00\x00\x05\x00\x00\x00\x00\x00\x00\x00\x01\x00\x00\x00\x00\x00\x00\x00\n\x00\x00\x00\x00\x00\x00\x00*\x00\x00\x00\x00\x00\x00\x00\x01\x00\x00\x00\x00\x00\x00\x00\x01\x00\x00\x00\x00\x00\x00\x00\x05\x00\x00\x00\x00\x00\x00\x00\x14\x01\x00\x00\x00\x00\x00\x00\x01\x00\x00\x00\x00\x00\x00\x00\x01\x00\x00\x00\x00\x00\x00\x00\x06\x00\x00\x00\x00\x00\x00\x00!\x00\x00\x00\x00\x00\x00\x00\x01\x00\x00\x00\x00\x00\x00\x00\x01\x00\x00\x00\x00\x00\x00\x00\x02\x00\x00\x00\x00\x00\x00\x00\x01\x00\x00\x00\x00\x00\x00\x00\x02\x00\x00\x00\x00\x00\x00\x00\x05\x00\x00\x00\x00\x00\x00\x00\x01\x00\x00\x00\x00\x00\x00\x00\x01\x00\x00\x00\x00\x00\x00\x00\x03\x00\x00\x00\x00\x00\x00\x00\x08\x00\x00\x00\x00\x00\x00\x00\x01\x00\x00\x00\x00\x00\x00\x00\x06\x00\x00\x00\x00\x00\x00\x00\x01\x00\x00\x00\x00\x00\x00\x00\x01\x00\x00\x00\x00\x00\x00\x00\x02\x00\x00\x00\x00\x00\x00\x00\x06\x00\x00\x00\x00\x00\x00\x00\x01\x00\x00\x00\x00\x00\x00\x00\x02\x00\x00\x00\x00\x00\x00\x00\x01\x00\x00\x00\x00\x00\x00\x00\x01\x00\x00\x00\x00\x00\x00\x00\x01\x00\x00\x00\x00\x00\x00\x00\x08\x00\x00\x00\x00\x00\x00\x00\x01\x00\x00\x00\x00\x00\x00\x00\x01\x00\x00\x00\x00\x00\x00\x00\x01\x00\x00\x00\x00\x00\x00\x00\x02\x00\x00\x00\x00\x00\x00\x00\x06\x00\x00\x00\x00\x00\x00\x00"\x00\x00\x00\x00\x00\x00\x00\x01\x00\x00\x00\x00\x00\x00\x00\x01\x00\x00\x00\x00\x00\x00\x00f\x00\x00\x00\x00\x00\x00\x00\x01\x00\x00\x00\x00\x00\x00\x00\x02\x00\x00\x00\x00\x00\x00\x005\x00\x00\x00\x00\x00\x00\x00\x03\x00\x00\x00\x00\x00\x00\x00\x01\x00\x00\x00\x00\x00\x00\x00\x04\x00\x00\x00\x00\x00\x00\x00\x02\x00\x00\x00\x00\x00\x00\x00\x04\x00\x00\x00\x00\x00\x00\x00\x02\x00\x00\x00\x00\x00\x00\x00\x01\x00\x00\x00\x00\x00\x00\x00\x01\x00\x00\x00\x00\x00\x00\x00\x01\x00\x00\x00\x00\x00\x00\x00\x11\x00\x00\x00\x00\x00\x00\x00\x04\x00\x00\x00\x00\x00\x00\x00\x01\x00\x00\x00\x00\x00\x00\x00\x02\x00\x00\x00\x00\x00\x00\x00\x01\x00\x00\x00\x00\x00\x00\x00\n\x00\x00\x00\x00\x00\x00\x00\x02\x00\x00\x00\x00\x00\x00\x00\x04\x00\x00\x00\x00\x00\x00\x00\x04\x00\x00\x00\x00\x00\x00\x00\x01\x00\x00\x00\x00\x00\x00\x00\x02\x00\x00\x00\x00\x00\x00\x00\x01\x00\x00\x00\x00\x00\x00\x00\x01\x00\x00\x00\x00\x00\x00\x00=\x01\x00\x00\x00\x00\x00\x00\x02\x00\x00\x00\x00\x00\x00\x00\x01\x00\x00\x00\x00\x00\x00\x00\x01\x00\x00\x00\x00\x00\x00\x00\x01\x00\x00\x00\x00\x00\x00\x00\x01\x00\x00\x00\x00\x00\x00\x00\x08\x00\x00\x00\x00\x00\x00\x00\x03\x00\x00\x00\x00\x00\x00\x00\x01\x00\x00\x00\x00\x00\x00\x00\x01\x00\x00\x00\x00\x00\x00\x00\x01\x00\x00\x00\x00\x00\x00\x00\x01\x00\x00\x00\x00\x00\x00\x00\x01\x00\x00\x00\x00\x00\x00\x00\x01\x00\x00\x00\x00\x00\x00\x00\x02\x00\x00\x00\x00\x00\x00\x00\x05\x00\x00\x00\x00\x00\x00\x00\x01\x00\x00\x00\x00\x00\x00\x00\x01\x00\x00\x00\x00\x00\x00\x00\x17\x00\x00\x00\x00\x00\x00\x00\x01\x00\x00\x00\x00\x00\x00\x00\x03\x00\x00\x00\x00\x00\x00\x00\x01\x00\x00\x00\x00\x00\x00\x00\x01\x00\x00\x00\x00\x00\x00\x00\x01\x00\x00\x00\x00\x00\x00\x00\x01\x00\x00\x00\x00\x00\x00\x00\x03\x00\x00\x00\x00\x00\x00\x00\x01\x00\x00\x00\x00\x00\x00\x00\x01\x00\x00\x00\x00\x00\x00\x00\x01\x00\x00\x00\x00\x00\x00\x00\x01\x00\x00\x00\x00\x00\x00\x00\x01\x00\x00\x00\x00\x00\x00\x00\x05\x00\x00\x00\x00\x00\x00\x00\x01\x00\x00\x00\x00\x00\x00\x00\x01\x00\x00\x00\x00\x00\x00\x00\x01\x00\x00\x00\x00\x00\x00\x00\x03\x00\x00\x00\x00\x00\x00\x00\x0c\x07\x00\x00\x00\x00\x00\x00\x01\x00\x00\x00\x00\x00\x00\x00\x04\x00\x00\x00\x00\x00\x00\x00\x0f\x00\x00\x00\x00\x00\x00\x00\x01\x00\x00\x00\x00\x00\x00\x00\x02\x00\x00\x00\x00\x00\x00\x00\x02\x00\x00\x00\x00\x00\x00\x00\x02\x00\x00\x00\x00\x00\x00\x00\x01\x00\x00\x00\x00\x00\x00\x00\x01\x00\x00\x00\x00\x00\x00\x00\x01\x00\x00\x00\x00\x00\x00\x00\x07\x00\x00\x00\x00\x00\x00\x00\x05\x00\x00\x00\x00\x00\x00\x00\x05\x00\x00\x00\x00\x00\x00\x00\x01\x00\x00\x00\x00\x00\x00\x00\x05\x00\x00\x00\x00\x00\x00\x00=\x00\x00\x00\x00\x00\x00\x00\x01\x00\x00\x00\x00\x00\x00\x00\x01\x00\x00\x00\x00\x00\x00\x00\x03\x00\x00\x00\x00\x00\x00\x00\x01\x00\x00\x00\x00\x00\x00\x00\x02\x00\x00\x00\x00\x00\x00\x00\x01\x00\x00\x00\x00\x00\x00\x00\x02\x00\x00\x00\x00\x00\x00\x00\x01\x00\x00\x00\x00\x00\x00\x00\x14\x00\x00\x00\x00\x00\x00\x00\x13\x00\x00\x00\x00\x00\x00\x00\x01\x00\x00\x00\x00\x00\x00\x00\x01\x00\x00\x00\x00\x00\x00\x00\x01\x00\x00\x00\x00\x00\x00\x00\x01\x00\x00\x00\x00\x00\x00\x00\x01\x00\x00\x00\x00\x00\x00\x00\x01\x00\x00\x00\x00\x00\x00\x00\x01\x00\x00\x00\x00\x00\x00\x00\x01\x00\x00\x00\x00\x00\x00\x00\x06\x00\x00\x00\x00\x00\x00\x00\x0e\x00\x00\x00\x00\x00\x00\x00\x01\x00\x00\x00\x00\x00\x00\x00\x01\x00\x00\x00\x00\x00\x00\x00\x02\x00\x00\x00\x00\x00\x00\x00\x03\x00\x00\x00\x00\x00\x00\x00\x01\x00\x00\x00\x00\x00\x00\x00\x17\x00\x00\x00\x00\x00\x00\x00\x04\x00\x00\x00\x00\x00\x00\x00\x02\x00\x00\x00\x00\x00\x00\x00\x04\x00\x00\x00\x00\x00\x00\x00\x01\x00\x00\x00\x00\x00\x00\x00\x02\x00\x00\x00\x00\x00\x00\x00\x04\x00\x00\x00\x00\x00\x00\x00\x01\x00\x00\x00\x00\x00\x00\x00\x03\x00\x00\x00\x00\x00\x00\x00\x02\x00\x00\x00\x00\x00\x00\x00\n\x00\x00\x00\x00\x00\x00\x00\x01\x00\x00\x00\x00\x00\x00\x00\x01\x00\x00\x00\x00\x00\x00\x00\x04\x00\x00\x00\x00\x00\x00\x00\x01\x00\x00\x00\x00\x00\x00\x00\x03\x00\x00\x00\x00\x00\x00\x00\x15\x00\x00\x00\x00\x00\x00\x00\x01\x00\x00\x00\x00\x00\x00\x00\x05\x00\x00\x00\x00\x00\x00\x00\x0c\x00\x00\x00\x00\x00\x00\x00\x01\x00\x00\x00\x00\x00\x00\x00\x03\x00\x00\x00\x00\x00\x00\x00\x01\x00\x00\x00\x00\x00\x00\x00\x1a\x00\x00\x00\x00\x00\x00\x00\x01\x00\x00\x00\x00\x00\x00\x00\x01\x00\x00\x00\x00\x00\x00\x00\x01\x00\x00\x00\x00\x00\x00\x00\x01\x00\x00\x00\x00\x00\x00\x00\x02\x00\x00\x00\x00\x00\x00\x00\x01\x00\x00\x00\x00\x00\x00\x00\x15\x00\x00\x00\x00\x00\x00\x00\x01\x00\x00\x00\x00\x00\x00\x00\x03\x00\x00\x00\x00\x00\x00\x00\x06\x00\x00\x00\x00\x00\x00\x00\x01\x00\x00\x00\x00\x00\x00\x00\x05\x00\x00\x00\x00\x00\x00\x00\x01\x00\x00\x00\x00\x00\x00\x00\x01\x00\x00\x00\x00\x00\x00\x00\x01\x00\x00\x00\x00\x00\x00\x00\x01\x00\x00\x00\x00\x00\x00\x00\x02\x00\x00\x00\x00\x00\x00\x00\x02\x00\x00\x00\x00\x00\x00\x00\x01\x00\x00\x00\x00\x00\x00\x00\x01\x00\x00\x00\x00\x00\x00\x00\x01\x00\x00\x00\x00\x00\x00\x00\x02\x00\x00\x00\x00\x00\x00\x00\x01\x00\x00\x00\x00\x00\x00\x00\x02\x00\x00\x00\x00\x00\x00\x00\x01\x00\x00\x00\x00\x00\x00\x00\x12\x00\x00\x00\x00\x00\x00\x00\x02\x00\x00\x00\x00\x00\x00\x00\x01\x00\x00\x00\x00\x00\x00\x00\x02\x00\x00\x00\x00\x00\x00\x00\x01\x00\x00\x00\x00\x00\x00\x00\x01\x00\x00\x00\x00\x00\x00\x00\x04\x00\x00\x00\x00\x00\x00\x00\x9d\x00\x00\x00\x00\x00\x00\x00\x01\x00\x00\x00\x00\x00\x00\x00\x02\x00\x00\x00\x00\x00\x00\x00\x02\x00\x00\x00\x00\x00\x00\x00\x08\x00\x00\x00\x00\x00\x00\x00\x02\x00\x00\x00\x00\x00\x00\x00\x02\x00\x00\x00\x00\x00\x00\x00\x0e\x00\x00\x00\x00\x00\x00\x00\x04\x00\x00\x00\x00\x00\x00\x00\x01\x00\x00\x00\x00\x00\x00\x00\x06\x00\x00\x00\x00\x00\x00\x00\x01\x00\x00\x00\x00\x00\x00\x00\x01\x00\x00\x00\x00\x00\x00\x00\x04\x00\x00\x00\x00\x00\x00\x00\x01\x00\x00\x00\x00\x00\x00\x00\x01\x00\x00\x00\x00\x00\x00\x00\x03\x00\x00\x00\x00\x00\x00\x00\x01\x00\x00\x00\x00\x00\x00\x00\x01\x00\x00\x00\x00\x00\x00\x00\x03\x00\x00\x00\x00\x00\x00\x00\x03\x00\x00\x00\x00\x00\x00\x00\x02\x00\x00\x00\x00\x00\x00\x00\x01\x00\x00\x00\x00\x00\x00\x00\x01\x00\x00\x00\x00\x00\x00\x00\n\x00\x00\x00\x00\x00\x00\x00\x03\x00\x00\x00\x00\x00\x00\x00\x02\x00\x00\x00\x00\x00\x00\x00\x01\x00\x00\x00\x00\x00\x00\x00\x01\x00\x00\x00\x00\x00\x00\x00\x01\x00\x00\x00\x00\x00\x00\x00\x01\x00\x00\x00\x00\x00\x00\x00\x01\x00\x00\x00\x00\x00\x00\x00\x03\x00\x00\x00\x00\x00\x00\x00\x04\x00\x00\x00\x00\x00\x00\x00\x08\x00\x00\x00\x00\x00\x00\x00\x01\x00\x00\x00\x00\x00\x00\x00`\x01\x00\x00\x00\x00\x00\x00\x01\x00\x00\x00\x00\x00\x00\x00\x01\x00\x00\x00\x00\x00\x00\x00\x08\x00\x00\x00\x00\x00\x00\x00\x01\x00\x00\x00\x00\x00\x00\x00\x08\x00\x00\x00\x00\x00\x00\x00\x01\x00\x00\x00\x00\x00\x00\x00\x01\x00\x00\x00\x00\x00\x00\x00\x02\x00\x00\x00\x00\x00\x00\x00\x02\x00\x00\x00\x00\x00\x00\x00\x01\x00\x00\x00\x00\x00\x00\x00\x01\x00\x00\x00\x00\x00\x00\x00\x03\x00\x00\x00\x00\x00\x00\x00\x01\x00\x00\x00\x00\x00\x00\x00\x03\x00\x00\x00\x00\x00\x00\x00\x01\x00\x00\x00\x00\x00\x00\x00\x01\x00\x00\x00\x00\x00\x00\x00\x01\x00\x00\x00\x00\x00\x00\x00\x12\x00\x00\x00\x00\x00\x00\x00\x08\x00\x00\x00\x00\x00\x00\x00\x01\x00\x00\x00\x00\x00\x00\x00\x07\x00\x00\x00\x00\x00\x00\x00\xc2\x03\x00\x00\x00\x00\x00\x00\x03\x00\x00\x00\x00\x00\x00\x00\x03\x00\x00\x00\x00\x00\x00\x00\x01\x00\x00\x00\x00\x00\x00\x00\x01\x00\x00\x00\x00\x00\x00\x00\x01\x00\x00\x00\x00\x00\x00\x00\x02\x00\x00\x00\x00\x00\x00\x00\t\x00\x00\x00\x00\x00\x00\x00\x02\x00\x00\x00\x00\x00\x00\x00\x01\x00\x00\x00\x00\x00\x00\x00\x05\x00\x00\x00\x00\x00\x00\x00\x01\x00\x00\x00\x00\x00\x00\x00\x01\x00\x00\x00\x00\x00\x00\x00\x01\x00\x00\x00\x00\x00\x00\x001\x02\x00\x00\x00\x00\x00\x00\x03\x00\x00\x00\x00\x00\x00\x00\x02\x00\x00\x00\x00\x00\x00\x00\x01\x00\x00\x00\x00\x00\x00\x00\x04\x00\x00\x00\x00\x00\x00\x00\x01\x00\x00\x00\x00\x00\x00\x00\x01\x00\x00\x00\x00\x00\x00\x00\x01\x00\x00\x00\x00\x00\x00\x00\x01\x00\x00\x00\x00\x00\x00\x00\x01\x00\x00\x00\x00\x00\x00\x00\x01\x00\x00\x00\x00\x00\x00\x00\x05\x00\x00\x00\x00\x00\x00\x00\x01\x00\x00\x00\x00\x00\x00\x00\x01\x00\x00\x00\x00\x00\x00\x00\x01\x00\x00\x00\x00\x00\x00\x00\x1a\x00\x00\x00\x00\x00\x00\x00\x03\x00\x00\x00\x00\x00\x00\x00\x01\x00\x00\x00\x00\x00\x00\x00\x01\x00\x00\x00\x00\x00\x00\x00\x01\x00\x00\x00\x00\x00\x00\x00*\x00\x00\x00\x00\x00\x00\x00\x05\x00\x00\x00\x00\x00\x00\x00\x01\x00\x00\x00\x00\x00\x00\x00\x05\x00\x00\x00\x00\x00\x00\x00\x04\x00\x00\x00\x00\x00\x00\x00\x03\x00\x00\x00\x00\x00\x00\x00\x05\x00\x00\x00\x00\x00\x00\x00\x02\x00\x00\x00\x00\x00\x00\x00\x01\x00\x00\x00\x00\x00\x00\x00\x01\x00\x00\x00\x00\x00\x00\x00\x04\x00\x00\x00\x00\x00\x00\x00\x04\x00\x00\x00\x00\x00\x00\x00\x02\x00\x00\x00\x00\x00\x00\x00\n\x00\x00\x00\x00\x00\x00\x00\x01\x00\x00\x00\x00\x00\x00\x00\x01\x00\x00\x00\x00\x00\x00\x00\x01\x00\x00\x00\x00\x00\x00\x00\x08\x00\x00\x00\x00\x00\x00\x00\x0b\x00\x00\x00\x00\x00\x00\x00\t\x00\x00\x00\x00\x00\x00\x00\x01\x00\x00\x00\x00\x00\x00\x00\x01\x00\x00\x00\x00\x00\x00\x00t\x00\x00\x00\x00\x00\x00\x00\x02\x00\x00\x00\x00\x00\x00\x00\x01\x00\x00\x00\x00\x00\x00\x00\x01\x00\x00\x00\x00\x00\x00\x00\x01\x00\x00\x00\x00\x00\x00\x00\x01\x00\x00\x00\x00\x00\x00\x00\x01\x00\x00\x00\x00\x00\x00\x00\x01\x00\x00\x00\x00\x00\x00\x00\x01\x00\x00\x00\x00\x00\x00\x00\x01\x00\x00\x00\x00\x00\x00\x00\xa3\x00\x00\x00\x00\x00\x00\x00\x04\x00\x00\x00\x00\x00\x00\x00\x01\x00\x00\x00\x00\x00\x00\x00\x01\x00\x00\x00\x00\x00\x00\x00\x01\x00\x00\x00\x00\x00\x00\x00\x01\x00\x00\x00\x00\x00\x00\x00\x02\x00\x00\x00\x00\x00\x00\x00\x01\x00\x00\x00\x00\x00\x00\x00\x07\x00\x00\x00\x00\x00\x00\x00\x04\x00\x00\x00\x00\x00\x00\x00\xf6\x01\x00\x00\x00\x00\x00\x00\x03\x00\x00\x00\x00\x00\x00\x00\x01\x00\x00\x00\x00\x00\x00\x00\x03\x00\x00\x00\x00\x00\x00\x00\x01\x00\x00\x00\x00\x00\x00\x00\x01\x00\x00\x00\x00\x00\x00\x00\x01\x00\x00\x00\x00\x00\x00\x00\x03\x00\x00\x00\x00\x00\x00\x00\x01\x00\x00\x00\x00\x00\x00\x00\x01\x00\x00\x00\x00\x00\x00\x00\x01\x00\x00\x00\x00\x00\x00\x00\t\x00\x00\x00\x00\x00\x00\x00\r\x00\x00\x00\x00\x00\x00\x00\x01\x00\x00\x00\x00\x00\x00\x00\x01\x00\x00\x00\x00\x00\x00\x00\x01\x00\x00\x00\x00\x00\x00\x00\x01\x00\x00\x00\x00\x00\x00\x00\x01\x00\x00\x00\x00\x00\x00\x00\x04\x00\x00\x00\x00\x00\x00\x00\x01\x00\x00\x00\x00\x00\x00\x00\x1a\x00\x00\x00\x00\x00\x00\x00\x01\x00\x00\x00\x00\x00\x00\x00\x01\x00\x00\x00\x00\x00\x00\x00\x04\x00\x00\x00\x00\x00\x00\x00\x01\x00\x00\x00\x00\x00\x00\x00\x02\x00\x00\x00\x00\x00\x00\x00\x01\x00\x00\x00\x00\x00\x00\x00\x01\x00\x00\x00\x00\x00\x00\x00\x01\x00\x00\x00\x00\x00\x00\x00\x05\x00\x00\x00\x00\x00\x00\x00\x01\x00\x00\x00\x00\x00\x00\x00\x02\x00\x00\x00\x00\x00\x00\x00\x04\x00\x00\x00\x00\x00\x00\x00\x01\x00\x00\x00\x00\x00\x00\x00\x01\x00\x00\x00\x00\x00\x00\x00\x01\x00\x00\x00\x00\x00\x00\x00\x02\x00\x00\x00\x00\x00\x00\x00\x01\x00\x00\x00\x00\x00\x00\x00\x01\x00\x00\x00\x00\x00\x00\x00\x03\x00\x00\x00\x00\x00\x00\x00\x01\x00\x00\x00\x00\x00\x00\x00\x01\x00\x00\x00\x00\x00\x00\x00\x01\x00\x00\x00\x00\x00\x00\x00\x01\x00\x00\x00\x00\x00\x00\x00\x01\x00\x00\x00\x00\x00\x00\x00\x03\x00\x00\x00\x00\x00\x00\x00\x01\x00\x00\x00\x00\x00\x00\x00\x08\x00\x00\x00\x00\x00\x00\x00\x01\x00\x00\x00\x00\x00\x00\x00\x01\x00\x00\x00\x00\x00\x00\x00\x02\x00\x00\x00\x00\x00\x00\x00\x01\x00\x00\x00\x00\x00\x00\x00\x01\x00\x00\x00\x00\x00\x00\x00\x07\x00\x00\x00\x00\x00\x00\x00\x01\x00\x00\x00\x00\x00\x00\x00\x01\x00\x00\x00\x00\x00\x00\x00\x01\x00\x00\x00\x00\x00\x00\x00\x02\x00\x00\x00\x00\x00\x00\x00\x03\x00\x00\x00\x00\x00\x00\x00\x01\x00\x00\x00\x00\x00\x00\x00\x02\x00\x00\x00\x00\x00\x00\x00\x01\x00\x00\x00\x00\x00\x00\x00\x01\x00\x00\x00\x00\x00\x00\x00\x03\x00\x00\x00\x00\x00\x00\x00\x04\x00\x00\x00\x00\x00\x00\x00\x01\x00\x00\x00\x00\x00\x00\x00\x07\x00\x00\x00\x00\x00\x00\x00\x02\x00\x00\x00\x00\x00\x00\x00\x01\x00\x00\x00\x00\x00\x00\x00\x0c\x00\x00\x00\x00\x00\x00\x00\x0c\x00\x00\x00\x00\x00\x00\x00\x01\x00\x00\x00\x00\x00\x00\x00\x01\x00\x00\x00\x00\x00\x00\x00\x01\x00\x00\x00\x00\x00\x00\x007\x00\x00\x00\x00\x00\x00\x00\x01\x00\x00\x00\x00\x00\x00\x00\x0c\x00\x00\x00\x00\x00\x00\x00\x02\x00\x00\x00\x00\x00\x00\x00\x01\x00\x00\x00\x00\x00\x00\x00\x01\x00\x00\x00\x00\x00\x00\x00\x01\x00\x00\x00\x00\x00\x00\x00\x01\x00\x00\x00\x00\x00\x00\x00\x02\x00\x00\x00\x00\x00\x00\x00\x01\x00\x00\x00\x00\x00\x00\x00\x03\x00\x00\x00\x00\x00\x00\x00\x05\x00\x00\x00\x00\x00\x00\x00\x01\x00\x00\x00\x00\x00\x00\x00\x02\x00\x00\x00\x00\x00\x00\x00\x04\x00\x00\x00\x00\x00\x00\x00\x10\x00\x00\x00\x00\x00\x00\x00\x07\x00\x00\x00\x00\x00\x00\x00\x02\x00\x00\x00\x00\x00\x00\x00\x01\x00\x00\x00\x00\x00\x00\x00\x02\x00\x00\x00\x00\x00\x00\x00\x01\x00\x00\x00\x00\x00\x00\x00\x01\x00\x00\x00\x00\x00\x00\x00\x01\x00\x00\x00\x00\x00\x00\x00\x01\x00\x00\x00\x00\x00\x00\x00\x01\x00\x00\x00\x00\x00\x00\x00\x04\x00\x00\x00\x00\x00\x00\x00\x04\x00\x00\x00\x00\x00\x00\x00\x01\x00\x00\x00\x00\x00\x00\x00\x03\x00\x00\x00\x00\x00\x00\x00\x01\x00\x00\x00\x00\x00\x00\x00\x02\x00\x00\x00\x00\x00\x00\x00\x01\x00\x00\x00\x00\x00\x00\x00\x01\x00\x00\x00\x00\x00\x00\x00\x05\x00\x00\x00\x00\x00\x00\x00\x01\x00\x00\x00\x00\x00\x00\x00\x02\x00\x00\x00\x00\x00\x00\x00\x01\x00\x00\x00\x00\x00\x00\x00\x02\x00\x00\x00\x00\x00\x00\x00\x02\x00\x00\x00\x00\x00\x00\x00\x01\x00\x00\x00\x00\x00\x00\x00\x01\x00\x00\x00\x00\x00\x00\x00\x04\x00\x00\x00\x00\x00\x00\x00\x01\x00\x00\x00\x00\x00\x00\x00\x01\x00\x00\x00\x00\x00\x00\x00\x01\x00\x00\x00\x00\x00\x00\x00\x01\x00\x00\x00\x00\x00\x00\x00\x01\x00\x00\x00\x00\x00\x00\x00\x02\x00\x00\x00\x00\x00\x00\x00\x01\x00\x00\x00\x00\x00\x00\x00\x01\x00\x00\x00\x00\x00\x00\x00\x02\x00\x00\x00\x00\x00\x00\x00\x01\x00\x00\x00\x00\x00\x00\x00\x01\x00\x00\x00\x00\x00\x00\x00\x01\x00\x00\x00\x00\x00\x00\x00\x06\x00\x00\x00\x00\x00\x00\x00\x01\x00\x00\x00\x00\x00\x00\x00\x12\x00\x00\x00\x00\x00\x00\x00\x06\x00\x00\x00\x00\x00\x00\x00\x05\x00\x00\x00\x00\x00\x00\x00\x01\x00\x00\x00\x00\x00\x00\x00\x03\x00\x00\x00\x00\x00\x00\x00\x01\x00\x00\x00\x00\x00\x00\x00\x01\x00\x00\x00\x00\x00\x00\x00\x01\x00\x00\x00\x00\x00\x00\x00\x18\x00\x00\x00\x00\x00\x00\x00\x02\x00\x00\x00\x00\x00\x00\x00\x05\x00\x00\x00\x00\x00\x00\x00\x01\x00\x00\x00\x00\x00\x00\x00\x01\x00\x00\x00\x00\x00\x00\x00\x04\x00\x00\x00\x00\x00\x00\x00\x02\x00\x00\x00\x00\x00\x00\x00\x03\x00\x00\x00\x00\x00\x00\x00\x01\x00\x00\x00\x00\x00\x00\x00\x02\x00\x00\x00\x00\x00\x00\x00\x01\x00\x00\x00\x00\x00\x00\x00\x01\x00\x00\x00\x00\x00\x00\x00\x01\x00\x00\x00\x00\x00\x00\x00\x04\x00\x00\x00\x00\x00\x00\x00\x04\x00\x00\x00\x00\x00\x00\x00\x01\x00\x00\x00\x00\x00\x00\x00\x01\x00\x00\x00\x00\x00\x00\x00\x01\x00\x00\x00\x00\x00\x00\x00\x06\x00\x00\x00\x00\x00\x00\x00\x17\x00\x00\x00\x00\x00\x00\x00\x12\x00\x00\x00\x00\x00\x00\x00\x01\x00\x00\x00\x00\x00\x00\x00\x01\x00\x00\x00\x00\x00\x00\x00\x02\x00\x00\x00\x00\x00\x00\x00\t\x00\x00\x00\x00\x00\x00\x00\x01\x00\x00\x00\x00\x00\x00\x00\x03\x00\x00\x00\x00\x00\x00\x00\x01\x00\x00\x00\x00\x00\x00\x00\x01\x00\x00\x00\x00\x00\x00\x00\x02\x00\x00\x00\x00\x00\x00\x00!\x0c\x00\x00\x00\x00\x00\x00\x03\x00\x00\x00\x00\x00\x00\x00\x01\x00\x00\x00\x00\x00\x00\x00\x1b\x06\x00\x00\x00\x00\x00\x00\x03\x00\x00\x00\x00\x00\x00\x00\x01\x00\x00\x00\x00\x00\x00\x00\x02\x00\x00\x00\x00\x00\x00\x00 \x00\x00\x00\x00\x00\x00\x00\x01\x00\x00\x00\x00\x00\x00\x00\x08\x00\x00\x00\x00\x00\x00\x00\x01\x00\x00\x00\x00\x00\x00\x00\x01\x00\x00\x00\x00\x00\x00\x00\x05\x00\x00\x00\x00\x00\x00\x00\x01\x00\x00\x00\x00\x00\x00\x00\x0c\x00\x00\x00\x00\x00\x00\x00\x03\x00\x00\x00\x00\x00\x00\x00\x01\x00\x00\x00\x00\x00\x00\x00\x01\x00\x00\x00\x00\x00\x00\x00\x01\x00\x00\x00\x00\x00\x00\x00\x01\x00\x00\x00\x00\x00\x00\x00\x02\x00\x00\x00\x00\x00\x00\x00\x04\x00\x00\x00\x00\x00\x00\x00\x01\x00\x00\x00\x00\x00\x00\x00\x01\x00\x00\x00\x00\x00\x00\x00\x01\x00\x00\x00\x00\x00\x00\x00\x02\x00\x00\x00\x00\x00\x00\x00\x01\x00\x00\x00\x00\x00\x00\x00\x01\x00\x00\x00\x00\x00\x00\x00#\x00\x00\x00\x00\x00\x00\x00\x01\x00\x00\x00\x00\x00\x00\x00\x01\x00\x00\x00\x00\x00\x00\x00\x01\x00\x00\x00\x00\x00\x00\x00\x04\x00\x00\x00\x00\x00\x00\x00\x01\x00\x00\x00\x00\x00\x00\x00\x01\x00\x00\x00\x00\x00\x00\x00\x01\x00\x00\x00\x00\x00\x00\x00\x01\x00\x00\x00\x00\x00\x00\x00\x03\x00\x00\x00\x00\x00\x00\x00\x04\x00\x00\x00\x00\x00\x00\x00\x01\x00\x00\x00\x00\x00\x00\x00\x01\x00\x00\x00\x00\x00\x00\x00\n\x00\x00\x00\x00\x00\x00\x00\xba\x00\x00\x00\x00\x00\x00\x00\x03\x00\x00\x00\x00\x00\x00\x00\x03\x00\x00\x00\x00\x00\x00\x00\x04\x00\x00\x00\x00\x00\x00\x00\x01\x00\x00\x00\x00\x00\x00\x00\x01\x00\x00\x00\x00\x00\x00\x00\x01\x00\x00\x00\x00\x00\x00\x00\x01\x00\x00\x00\x00\x00\x00\x00\x01\x00\x00\x00\x00\x00\x00\x00\x01\x00\x00\x00\x00\x00\x00\x00\x04\x00\x00\x00\x00\x00\x00\x00\x07\x00\x00\x00\x00\x00\x00\x00#\x00\x00\x00\x00\x00\x00\x00\x01\x00\x00\x00\x00\x00\x00\x00\x01\x00\x00\x00\x00\x00\x00\x00\x06\x00\x00\x00\x00\x00\x00\x00\x01\x00\x00\x00\x00\x00\x00\x00\x01\x00\x00\x00\x00\x00\x00\x00\x01\x00\x00\x00\x00\x00\x00\x00\x02\x00\x00\x00\x00\x00\x00\x00\x01\x00\x00\x00\x00\x00\x00\x00\x05\x00\x00\x00\x00\x00\x00\x00\x01\x00\x00\x00\x00\x00\x00\x00\x06\x00\x00\x00\x00\x00\x00\x00\x04\x00\x00\x00\x00\x00\x00\x00\x01\x00\x00\x00\x00\x00\x00\x00\x01\x00\x00\x00\x00\x00\x00\x00\x02\x00\x00\x00\x00\x00\x00\x00\x03\x00\x00\x00\x00\x00\x00\x00\x01\x00\x00\x00\x00\x00\x00\x00\x02\x00\x00\x00\x00\x00\x00\x00\x01\x00\x00\x00\x00\x00\x00\x00\x02\x00\x00\x00\x00\x00\x00\x00\x01\x00\x00\x00\x00\x00\x00\x00\x01\x00\x00\x00\x00\x00\x00\x00\x01\x00\x00\x00\x00\x00\x00\x00\x01\x00\x00\x00\x00\x00\x00\x00\x05\x00\x00\x00\x00\x00\x00\x00\x01\x00\x00\x00\x00\x00\x00\x00\x03\x00\x00\x00\x00\x00\x00\x00\x01\x00\x00\x00\x00\x00\x00\x00\x01\x00\x00\x00\x00\x00\x00\x00\x01\x00\x00\x00\x00\x00\x00\x00\x01\x00\x00\x00\x00\x00\x00\x00\x02\x00\x00\x00\x00\x00\x00\x00\x02\x00\x00\x00\x00\x00\x00\x00\x01\x00\x00\x00\x00\x00\x00\x00\x02\x00\x00\x00\x00\x00\x00\x00\x02\x00\x00\x00\x00\x00\x00\x00\x03\x00\x00\x00\x00\x00\x00\x00\x01\x00\x00\x00\x00\x00\x00\x00\x01\x00\x00\x00\x00\x00\x00\x00\x03\x00\x00\x00\x00\x00\x00\x00\x01\x00\x00\x00\x00\x00\x00\x00\x01\x00\x00\x00\x00\x00\x00\x00\x02\x00\x00\x00\x00\x00\x00\x00\x02\x00\x00\x00\x00\x00\x00\x00\x01\x00\x00\x00\x00\x00\x00\x00\r\x00\x00\x00\x00\x00\x00\x00\x01\x00\x00\x00\x00\x00\x00\x00\x01\x00\x00\x00\x00\x00\x00\x00\x01\x00\x00\x00\x00\x00\x00\x00\x0c\x00\x00\x00\x00\x00\x00\x00\x01\x00\x00\x00\x00\x00\x00\x00\x02\x00\x00\x00\x00\x00\x00\x00\x02\x00\x00\x00\x00\x00\x00\x00\x04\x00\x00\x00\x00\x00\x00\x00\x04\x00\x00\x00\x00\x00\x00\x00\x04\x00\x00\x00\x00\x00\x00\x00\x03\x00\x00\x00\x00\x00\x00\x00\x01\x00\x00\x00\x00\x00\x00\x00\x03\x00\x00\x00\x00\x00\x00\x00\x03\x00\x00\x00\x00\x00\x00\x00\x02\x00\x00\x00\x00\x00\x00\x00\x02\x00\x00\x00\x00\x00\x00\x00\x03\x00\x00\x00\x00\x00\x00\x00\x03\x00\x00\x00\x00\x00\x00\x00\x0b\x00\x00\x00\x00\x00\x00\x00\x01\x00\x00\x00\x00\x00\x00\x00\x02\x00\x00\x00\x00\x00\x00\x00\x01\x00\x00\x00\x00\x00\x00\x00\x08\x00\x00\x00\x00\x00\x00\x00\x02\x00\x00\x00\x00\x00\x00\x00\x02\x00\x00\x00\x00\x00\x00\x00\x01\x00\x00\x00\x00\x00\x00\x00\x02\x00\x00\x00\x00\x00\x00\x00\x01\x00\x00\x00\x00\x00\x00\x00\x01\x00\x00\x00\x00\x00\x00\x00\x02\x00\x00\x00\x00\x00\x00\x00\x04\x00\x00\x00\x00\x00\x00\x00\x01\x00\x00\x00\x00\x00\x00\x00\x01\x00\x00\x00\x00\x00\x00\x00\x02\x00\x00\x00\x00\x00\x00\x00\x01\x00\x00\x00\x00\x00\x00\x00\x05\x00\x00\x00\x00\x00\x00\x00\x02\x00\x00\x00\x00\x00\x00\x00\x01\x00\x00\x00\x00\x00\x00\x00\x03\x00\x00\x00\x00\x00\x00\x00\x01\x00\x00\x00\x00\x00\x00\x00b\x00\x00\x00\x00\x00\x00\x00\x01\x00\x00\x00\x00\x00\x00\x00\x02\x00\x00\x00\x00\x00\x00\x00\x02\x00\x00\x00\x00\x00\x00\x00\x01\x00\x00\x00\x00\x00\x00\x00\x01\x00\x00\x00\x00\x00\x00\x00\x03\x00\x00\x00\x00\x00\x00\x00\x04\x00\x00\x00\x00\x00\x00\x00\x01\x00\x00\x00\x00\x00\x00\x00\x01\x00\x00\x00\x00\x00\x00\x00\x01\x00\x00\x00\x00\x00\x00\x00\x01\x00\x00\x00\x00\x00\x00\x00\x03\x00\x00\x00\x00\x00\x00\x00\x01\x00\x00\x00\x00\x00\x00\x00\x02\x00\x00\x00\x00\x00\x00\x00\x01\x00\x00\x00\x00\x00\x00\x00\x01\x00\x00\x00\x00\x00\x00\x00\x02\x00\x00\x00\x00\x00\x00\x00\x01\x00\x00\x00\x00\x00\x00\x00\x03\x00\x00\x00\x00\x00\x00\x00\x02\x00\x00\x00\x00\x00\x00\x00\x0c\x00\x00\x00\x00\x00\x00\x00\x01\x00\x00\x00\x00\x00\x00\x00\x06\x00\x00\x00\x00\x00\x00\x00\x01\x00\x00\x00\x00\x00\x00\x00\x01\x00\x00\x00\x00\x00\x00\x00\x01\x00\x00\x00\x00\x00\x00\x00\x01\x00\x00\x00\x00\x00\x00\x00\x01\x00\x00\x00\x00\x00\x00\x00\x02\x00\x00\x00\x00\x00\x00\x00\x02\x00\x00\x00\x00\x00\x00\x00\x03\x00\x00\x00\x00\x00\x00\x00\x02\x00\x00\x00\x00\x00\x00\x00\t\x00\x00\x00\x00\x00\x00\x00\x01\x00\x00\x00\x00\x00\x00\x00\x01\x00\x00\x00\x00\x00\x00\x00\x01\x00\x00\x00\x00\x00\x00\x00\x04\x00\x00\x00\x00\x00\x00\x00\x0c\x00\x00\x00\x00\x00\x00\x00\x01\x00\x00\x00\x00\x00\x00\x00\x02\x00\x00\x00\x00\x00\x00\x00\x01\x00\x00\x00\x00\x00\x00\x00\x01\x00\x00\x00\x00\x00\x00\x00\x01\x00\x00\x00\x00\x00\x00\x00\x01\x00\x00\x00\x00\x00\x00\x00\x02\x00\x00\x00\x00\x00\x00\x00\x03\x00\x00\x00\x00\x00\x00\x00\x01\x00\x00\x00\x00\x00\x00\x00\x02\x00\x00\x00\x00\x00\x00\x00\x03\x00\x00\x00\x00\x00\x00\x00\x0c\x00\x00\x00\x00\x00\x00\x00\x0c\x00\x00\x00\x00\x00\x00\x00\x01\x00\x00\x00\x00\x00\x00\x00\x01\x00\x00\x00\x00\x00\x00\x00\x01\x00\x00\x00\x00\x00\x00\x00\xaf\n\x00\x00\x00\x00\x00\x00\x01\x00\x00\x00\x00\x00\x00\x00\x01\x00\x00\x00\x00\x00\x00\x00\x04\x00\x00\x00\x00\x00\x00\x00\x01\x00\x00\x00\x00\x00\x00\x00\x01\x00\x00\x00\x00\x00\x00\x00\x01\x00\x00\x00\x00\x00\x00\x00\x01\x00\x00\x00\x00\x00\x00\x00\x01\x00\x00\x00\x00\x00\x00\x00\x01\x00\x00\x00\x00\x00\x00\x00\x18\x00\x00\x00\x00\x00\x00\x00\x01\x00\x00\x00\x00\x00\x00\x00\x01\x00\x00\x00\x00\x00\x00\x00\x01\x00\x00\x00\x00\x00\x00\x00\x11\x00\x00\x00\x00\x00\x00\x00\x03\x00\x00\x00\x00\x00\x00\x00\x01\x00\x00\x00\x00\x00\x00\x003\x00\x00\x00\x00\x00\x00\x00\x01\x00\x00\x00\x00\x00\x00\x00\x01\x00\x00\x00\x00\x00\x00\x00\x04\x00\x00\x00\x00\x00\x00\x00\x01\x00\x00\x00\x00\x00\x00\x00\x01\x00\x00\x00\x00\x00\x00\x00\x01\x00\x00\x00\x00\x00\x00\x00\x02\x00\x00\x00\x00\x00\x00\x00\x02\x00\x00\x00\x00\x00\x00\x00\x01\x00\x00\x00\x00\x00\x00\x00\x01\x00\x00\x00\x00\x00\x00\x00\x01\x00\x00\x00\x00\x00\x00\x00\x05\x00\x00\x00\x00\x00\x00\x00\x08\x00\x00\x00\x00\x00\x00\x00\x01\x00\x00\x00\x00\x00\x00\x00\x08\x00\x00\x00\x00\x00\x00\x00\x04\x00\x00\x00\x00\x00\x00\x00\x01\x00\x00\x00\x00\x00\x00\x00\x01\x00\x00\x00\x00\x00\x00\x00\x02\x00\x00\x00\x00\x00\x00\x00\x03\x00\x00\x00\x00\x00\x00\x00\x01\x00\x00\x00\x00\x00\x00\x00\x01\x00\x00\x00\x00\x00\x00\x00\x04\x00\x00\x00\x00\x00\x00\x00\x02\x00\x00\x00\x00\x00\x00\x00\x01\x00\x00\x00\x00\x00\x00\x00\x01\x00\x00\x00\x00\x00\x00\x00\x01\x00\x00\x00\x00\x00\x00\x00\x01\x00\x00\x00\x00\x00\x00\x00\x01\x00\x00\x00\x00\x00\x00\x00\x04\x00\x00\x00\x00\x00\x00\x00\x03\x00\x00\x00\x00\x00\x00\x00\x01\x00\x00\x00\x00\x00\x00\x00\x01\x00\x00\x00\x00\x00\x00\x00\x06\x00\x00\x00\x00\x00\x00\x00\x01\x00\x00\x00\x00\x00\x00\x00\x03\x00\x00\x00\x00\x00\x00\x00\x01\x00\x00\x00\x00\x00\x00\x00\x01\x00\x00\x00\x00\x00\x00\x00\x01\x00\x00\x00\x00\x00\x00\x00\x01\x00\x00\x00\x00\x00\x00\x00\x05\x00\x00\x00\x00\x00\x00\x00\x04\x00\x00\x00\x00\x00\x00\x00\x01\x00\x00\x00\x00\x00\x00\x00\xb8\x06\x00\x00\x00\x00\x00\x00\x03\x00\x00\x00\x00\x00\x00\x00\x01\x00\x00\x00\x00\x00\x00\x00\x04\x00\x00\x00\x00\x00\x00\x00\x07\x00\x00\x00\x00\x00\x00\x00\x03\x00\x00\x00\x00\x00\x00\x00\x03\x00\x00\x00\x00\x00\x00\x00\x01\x00\x00\x00\x00\x00\x00\x00\x01\x00\x00\x00\x00\x00\x00\x00\x01\x00\x00\x00\x00\x00\x00\x00\x01\x00\x00\x00\x00\x00\x00\x00\x0c\x00\x00\x00\x00\x00\x00\x00\x02\x00\x00\x00\x00\x00\x00\x00\x02\x00\x00\x00\x00\x00\x00\x00\x01\x00\x00\x00\x00\x00\x00\x00\x01\x00\x00\x00\x00\x00\x00\x00\x01\x00\x00\x00\x00\x00\x00\x00\x06\x00\x00\x00\x00\x00\x00\x00\x01\x00\x00\x00\x00\x00\x00\x00\x03\x00\x00\x00\x00\x00\x00\x00\x02\x00\x00\x00\x00\x00\x00\x00\x05\x00\x00\x00\x00\x00\x00\x00\x05\x00\x00\x00\x00\x00\x00\x00\x01\x00\x00\x00\x00\x00\x00\x00\x01\x00\x00\x00\x00\x00\x00\x00\x02\x00\x00\x00\x00\x00\x00\x00\x02\x00\x00\x00\x00\x00\x00\x00\x01\x00\x00\x00\x00\x00\x00\x00\x02\x00\x00\x00\x00\x00\x00\x00\x01\x00\x00\x00\x00\x00\x00\x00\x01\x00\x00\x00\x00\x00\x00\x00\x02\x00\x00\x00\x00\x00\x00\x00\x01\x00\x00\x00\x00\x00\x00\x00\x04\x00\x00\x00\x00\x00\x00\x00\x01\x00\x00\x00\x00\x00\x00\x00\x01\x00\x00\x00\x00\x00\x00\x00\x01\x00\x00\x00\x00\x00\x00\x00\x02\x00\x00\x00\x00\x00\x00\x00\x01\x00\x00\x00\x00\x00\x00\x00\x01\x00\x00\x00\x00\x00\x00\x00\x01\x00\x00\x00\x00\x00\x00\x00\x03\x00\x00\x00\x00\x00\x00\x00\x01\x00\x00\x00\x00\x00\x00\x00\x05\x00\x00\x00\x00\x00\x00\x00\x01\x00\x00\x00\x00\x00\x00\x00\x11\x00\x00\x00\x00\x00\x00\x00\x01\x00\x00\x00\x00\x00\x00\x00\x01\x00\x00\x00\x00\x00\x00\x00\x01\x00\x00\x00\x00\x00\x00\x00\x01\x00\x00\x00\x00\x00\x00\x00\x06\x00\x00\x00\x00\x00\x00\x00\x04\x00\x00\x00\x00\x00\x00\x00\x02\x00\x00\x00\x00\x00\x00\x00\x01\x00\x00\x00\x00\x00\x00\x00\x01\x00\x00\x00\x00\x00\x00\x00\x01\x00\x00\x00\x00\x00\x00\x00\x01\x00\x00\x00\x00\x00\x00\x00\x01\x00\x00\x00\x00\x00\x00\x00\x01\x00\x00\x00\x00\x00\x00\x00\x02\x00\x00\x00\x00\x00\x00\x00\x01\x00\x00\x00\x00\x00\x00\x00\x01\x00\x00\x00\x00\x00\x00\x00\x0e\x00\x00\x00\x00\x00\x00\x00\x01\x00\x00\x00\x00\x00\x00\x00\x01\x00\x00\x00\x00\x00\x00\x00.\x01\x00\x00\x00\x00\x00\x00\x05\x00\x00\x00\x00\x00\x00\x00\x01\x00\x00\x00\x00\x00\x00\x00\x04\x00\x00\x00\x00\x00\x00\x00\x02\x00\x00\x00\x00\x00\x00\x00\x01\x00\x00\x00\x00\x00\x00\x00!\x03\x00\x00\x00\x00\x00\x00\x01\x00\x00\x00\x00\x00\x00\x00\x02\x00\x00\x00\x00\x00\x00\x00<\x00\x00\x00\x00\x00\x00\x00\x02\x00\x00\x00\x00\x00\x00\x00\x02\x00\x00\x00\x00\x00\x00\x00\x01\x00\x00\x00\x00\x00\x00\x00\x01\x00\x00\x00\x00\x00\x00\x00\x02\x00\x00\x00\x00\x00\x00\x00\x01\x00\x00\x00\x00\x00\x00\x00\x01\x00\x00\x00\x00\x00\x00\x00\x19\x02\x00\x00\x00\x00\x00\x00\x02\x00\x00\x00\x00\x00\x00\x00\x01\x00\x00\x00\x00\x00\x00\x00\x04\x00\x00\x00\x00\x00\x00\x00\x01\x00\x00\x00\x00\x00\x00\x00\x02\x00\x00\x00\x00\x00\x00\x00\x01\x00\x00\x00\x00\x00\x00\x00\x01\x00\x00\x00\x00\x00\x00\x00\x01\x00\x00\x00\x00\x00\x00\x00\x02\x00\x00\x00\x00\x00\x00\x00\x02\x00\x00\x00\x00\x00\x00\x00\x02\x00\x00\x00\x00\x00\x00\x00\x01\x00\x00\x00\x00\x00\x00\x00\x14\x00\x00\x00\x00\x00\x00\x00\x02\x00\x00\x00\x00\x00\x00\x00\x01\x00\x00\x00\x00\x00\x00\x00\x04\x00\x00\x00\x00\x00\x00\x00\x01\x00\x00\x00\x00\x00\x00\x00\x01\x00\x00\x00\x00\x00\x00\x00\x01\x00\x00\x00\x00\x00\x00\x00\x03\x00\x00\x00\x00\x00\x00\x00\x03\x00\x00\x00\x00\x00\x00\x00\x01\x00\x00\x00\x00\x00\x00\x00\x03\x00\x00\x00\x00\x00\x00\x00\x02\x00\x00\x00\x00\x00\x00\x00\x05\x00\x00\x00\x00\x00\x00\x00\x01\x00\x00\x00\x00\x00\x00\x00\x1a\x00\x00\x00\x00\x00\x00\x00\x01\x00\x00\x00\x00\x00\x00\x00\x08\x00\x00\x00\x00\x00\x00\x00\x01\x00\x00\x00\x00\x00\x00\x00\x02\x00\x00\x00\x00\x00\x00\x00\x01\x00\x00\x00\x00\x00\x00\x00\x01\x00\x00\x00\x00\x00\x00\x00\x02\x00\x00\x00\x00\x00\x00\x00\x03\x00\x00\x00\x00\x00\x00\x00\x01\x00\x00\x00\x00\x00\x00\x00\x04\x00\x00\x00\x00\x00\x00\x00\x01\x00\x00\x00\x00\x00\x00\x00\x07\x00\x00\x00\x00\x00\x00\x00\x02\x00\x00\x00\x00\x00\x00\x00\x05\x00\x00\x00\x00\x00\x00\x00\x01\x00\x00\x00\x00\x00\x00\x00\x07\x00\x00\x00\x00\x00\x00\x00\x01\x00\x00\x00\x00\x00\x00\x00\x01\x00\x00\x00\x00\x00\x00\x00\x04\x00\x00\x00\x00\x00\x00\x00\x01\x00\x00\x00\x00\x00\x00\x00\x02\x00\x00\x00\x00\x00\x00\x00\x01\x00\x00\x00\x00\x00\x00\x00\x02\x00\x00\x00\x00\x00\x00\x00\x02\x00\x00\x00\x00\x00\x00\x00\x01\x00\x00\x00\x00\x00\x00\x00\x01\x00\x00\x00\x00\x00\x00\x00\x01\x00\x00\x00\x00\x00\x00\x00\x01\x00\x00\x00\x00\x00\x00\x00\x0c\x00\x00\x00\x00\x00\x00\x00\x02\x00\x00\x00\x00\x00\x00\x00\x01\x00\x00\x00\x00\x00\x00\x00\x07\x00\x00\x00\x00\x00\x00\x00\x01\x00\x00\x00\x00\x00\x00\x00\x01\x00\x00\x00\x00\x00\x00\x00\x01\x00\x00\x00\x00\x00\x00\x00'
p8344
tp8345
ba(lp8346
g9
(g10
(dp8347
g12
g13
(g14
(I0
tp8348
g16
tp8349
Rp8350
(I1
(I6
tp8351
g23
I00
(lp8352
g27
ag28
ag29
ag30
ag31
ag33
atp8353
bsg35
Nstp8354
Rp8355
ag9
(g10
(dp8356
g12
g13
(g14
(I0
tp8357
g16
tp8358
Rp8359
(I1
(I1
tp8360
g23
I00
(lp8361
g32
atp8362
bsg35
Nstp8363
Rp8364
a(dp8365
S'0.14.1'
p8366
(dp8367
S'axes'
p8368
g8
sS'blocks'
p8369
(lp8370
(dp8371
S'mgr_locs'
p8372
g13
(g14
(I0
tp8373
g16
tp8374
Rp8375
(I1
(I6
tp8376
g8341
I00
S'\x00\x00\x00\x00\x00\x00\x00\x00\x01\x00\x00\x00\x00\x00\x00\x00\x02\x00\x00\x00\x00\x00\x00\x00\x03\x00\x00\x00\x00\x00\x00\x00\x04\x00\x00\x00\x00\x00\x00\x00\x06\x00\x00\x00\x00\x00\x00\x00'
p8377
tp8378
bsS'values'
p8379
g1233
sa(dp8380
g8372
c__builtin__
slice
p8381
(I5
I6
I1
tp8382
Rp8383
sg8379
g8337
sasstp8384
bb.