ccopy_reg
_reconstructor
p0
(cpandas.core.frame
DataFrame
p1
c__builtin__
object
p2
Ntp3
Rp4
g0
(cpandas.core.internals
BlockManager
p5
g2
Ntp6
Rp7
((lp8
cpandas.core.index
_new_Index
p9
(cpandas.core.index
Index
p10
(dp11
S'data'
p12
cnumpy.core.multiarray
_reconstruct
p13
(cnumpy
ndarray
p14
(I0
tp15
S'b'
p16
tp17
Rp18
(I1
(I7
tp19
cnumpy
dtype
p20
(S'O8'
p21
I0
I1
tp22
Rp23
(I3
S'|'
p24
NNNI-1
I-1
I63
tp25
bI00
(lp26
S'Rank'
p27
aS'Studio'
p28
aS'TotalGross'
p29
aS'TotalTheaters'
p30
aS'OpenGross'
p31
aS'OpenTheatres'
p32
aS'RelDate'
p33
atp34
bsS'name'
p35
Nstp36
Rp37
ag9
(g10
(dp38
g12
g13
(g14
(I0
tp39
g16
tp40
Rp41
(I1
(I117
tp42
g23
I00
(lp43
S'The Panama Deception'
p44
aS'The Most Dangerous Man in America: Daniel Ellsberg and the Pentagon Papers'
p45
aS'Peace, Propaganda and the Promised Land'
p46
aS'Celsius 41.11: The Truth Behind the Lies of Fahrenheit 9/11'
p47
aS'The War Tapes'
p48
aS"Pay 2 Play: Democracy's High Stakes"
p49
aS'Stolen Childhoods'
p50
aS'Running with Arnold'
p51
aS'The Big One'
p52
aS'America Betrayed'
p53
aS'Evergreen: The Road to Legalization'
p54
aS'Outrage'
p55
aS'Meeting Resistance'
p56
aS'Weapons of Mass Deception'
p57
aS'Client 9: The Rise and Fall of Eliot Spitzer'
p58
aS'The U.S. Vs. John Lennon'
p59
aS"In the Face of Evil: Reagan's War in Word and Deed"
p60
aS'The Fog of War'
p61
aS'I.O.U.S.A.'
p62
aS'The Unforeseen'
p63
aS'An Unreasonable Man'
p64
aS'Bowling for Columbine'
p65
aS'Koch'
p66
aS'Expelled: No Intelligence Allowed'
p67
aS'Power and Terror: Noam Chomsky in Our Times'
p68
aS'No End in Sight'
p69
aS'Hating Breitbart'
p70
aS'The Last Party'
p71
aS'America: Freedom to Fascism'
p72
aS'Fahrenheit 9/11'
p73
aS'Al Franken: God Spoke'
p74
aS'Giuliani Time'
p75
aS'FLOW: For Love of Water'
p76
aS'Citizen Koch'
p77
aS'My Country, My Country'
p78
aS'Dirty Wars'
p79
aS'Ai Weiwei: Never Sorry'
p80
aS'Granito: How to Nail a Dictator'
p81
aS'Taxi to the Dark Side'
p82
aS'Grass'
p83
aS'Unborn in the USA'
p84
aS'Orwell Rolls in His Grave'
p85
aS'Earth Days'
p86
aS'Feed'
p87
aS'Tying the Knot'
p88
aS'Ballot Measure 9'
p89
aS'Escape Fire'
p90
aS'Crossing the Line'
p91
aS'The Great Invisible'
p92
aS'Body of War'
p93
aS'Suicide Killers'
p94
aS'Roger and Me'
p95
aS'The Hunting of the President'
p96
aS'Our Nixon'
p97
aS'The Prisoner or: How I Planned to Kill Tony Blair'
p98
aS'Journeys with George'
p99
aS'Your Mommy Kills Animals'
p100
aS'The Weather Underground'
p101
aS'So Goes the Nation'
p102
aS'The Yes Men'
p103
aS'The Unknown Known'
p104
aS"The Letter: An American Town and the 'Somali Invasion'"
p105
aS'Ever Again'
p106
aS'Blood and Tears'
p107
aS'Chicago 10'
p108
aS'Stealing America: Vote by Vote'
p109
aS"2016 Obama's America"
p110
aS'This Divided State'
p111
aS'Return to the Land of Wonders'
p112
aS'The Cult of the Suicide Bomber'
p113
aS'Boogie Man: The Lee Atwater Story'
p114
aS'Uncovered: The War on Iraq'
p115
aS'Call + Response'
p116
aS'Lake of Fire'
p117
aS'Going Upriver: The Long War of John Kerry'
p118
aS'Up for Grabs'
p119
aS'Control Room'
p120
aS'Iraq in Fragments'
p121
aS'Can Mr. Smith Get to Washington Anymore?'
p122
aS'The Price of Sugar'
p123
aS'Sarah Palin - You Betcha!'
p124
aS'Voices of Iraq'
p125
aS'Citizenfour'
p126
aS'The Yes Men Fix the World'
p127
aS'Where in the World Is Osama Bin Laden?'
p128
aS'For the Bible Tells Me So'
p129
aS'The Last Mountain'
p130
aS"Everything's Cool"
p131
aS'Casino Jack and the United States of Money'
p132
aS'Split: A Deeper Divide'
p133
aS'Occupy Unmasked'
p134
aS'Brothers in Arms'
p135
aS"Bush's Brain"
p136
aS'The Ground Truth'
p137
aS'I Want Your Money'
p138
aS'Shake Hands with the Devil: The Journey of Romeo Dallaire'
p139
aS'Voices in Wartime'
p140
aS'With God on Our Side: George W. Bush...'
p141
aS'Inequality for All'
p142
aS'An Inconvenient Truth'
p143
aS'The Trials of Henry Kissinger'
p144
aS"Outfoxed: Rupert Murdoch's War on Journalism"
p145
aS'Sicko'
p146
aS'Our Brand Is Crisis'
p147
aS'Inside Job'
p148
aS'The War Room'
p149
aS'Shoot Down'
p150
aS'The Corporation'
p151
aS'America (2014)'
p152
aS'Wall'
p153
aS'Fidel'
p154
aS'Capitalism: A Love Story'
p155
aS'Why We Fight'
p156
aS'The Empire in Africa'
p157
aS'Brothers at War'
p158
aS'The Undefeated (2011)'
p159
aS"There's No Place Like Utopia"
p160
atp161
bsg35
Nstp162
Rp163
a(lp164
g13
(g14
(I0
tp165
g16
tp166
Rp167
(I1
(I6
I117
tp168
g23
I00
(lp169
S'35'
p170
aS'27'
p171
aS'105'
p172
aS'65'
p173
aS'41'
p174
aS'98'
p175
aS'113'
p176
aS'116'
p177
aS'21'
p178
aS'122'
p179
aS'114'
p180
aS'37'
p181
aS'88'
p182
aS'83'
p183
aS'47'
p184
aS'18'
p185
aS'63'
p186
aS'11'
p187
aS'20'
p188
aS'66'
p189
aS'51'
p190
aS'5'
p191
aS'32'
p192
aS'8'
p193
aS'36'
p194
aS'16'
p195
aS'68'
p196
aS'97'
p197
aS'67'
p198
aS'1'
p199
aS'64'
p200
aS'86'
p201
aS'55'
p202
aS'53'
p203
aS'82'
p204
aS'30'
p205
aS'24'
p206
aS'78'
p207
aS'39'
p208
aS'33'
p209
aS'120'
p210
aS'90'
p211
aS'84'
p212
aS'76'
p213
aS'79'
p214
aS'74'
p215
aS'58'
p216
aS'102'
p217
aS'96'
p218
aS'70'
p219
aS'92'
p220
aS'9'
p221
aS'31'
p222
aS'89'
p223
aS'112'
p224
aS'110'
p225
aS'81'
p226
aS'23'
p227
aS'101'
p228
aS'40'
p229
aS'38'
p230
aS'119'
p231
aS'93'
p232
aS'107'
p233
aS'49'
p234
aS'103'
p235
aS'2'
p236
aS'108'
p237
aS'121'
p238
aS'104'
p239
aS'72'
p240
aS'43'
p241
aS'44'
p242
aS'85'
p243
aS'22'
p244
aS'95'
p245
aS'13'
p246
aS'45'
p247
aS'80'
p248
aS'111'
p249
aS'99'
p250
aS'73'
p251
aS'14'
p252
aS'46'
p253
aS'29'
p254
aS'34'
p255
aS'59'
p256
aS'106'
p257
aS'50'
p258
aS'115'
p259
aS'75'
p260
aS'109'
p261
aS'48'
p262
aS'91'
p263
aS'28'
p264
aS'71'
p265
aS'87'
p266
aS'117'
p267
aS'17'
p268
aS'4'
p269
aS'25'
p270
aS'26'
p271
aS'3'
p272
aS'52'
p273
aS'10'
p274
aS'19'
p275
aS'69'
p276
aS'12'
p277
aS'6'
p278
aS'94'
p279
aS'61'
p280
aS'7'
p281
aS'15'
p282
aS'123'
p283
aS'54'
p284
aS'62'
p285
aS'77'
p286
aS'EPr'
p287
aS'FRun'
p288
aS'Arab'
p289
aS'CitU'
p290
aS'SenA'
p291
aS'SFI'
p292
aS'Bal.'
p293
aS'Lant'
p294
aS'Mira.'
p295
aS'FRun'
p296
aS'FRun'
p297
aS'Magn.'
p298
aS'ICir'
p299
aS'Libre'
p300
aS'Magn.'
p301
aS'LGF'
p302
aS'NFF'
p303
aS'SPC'
p304
aS'RAtt.'
p305
aS'CGld'
p306
aS'IFC'
p307
aS'UA'
p308
aS'Zeit.'
p309
aS'RM'
p310
aS'FRun'
p311
aS'Magn.'
p312
aS'RM'
p313
aS'Trit'
p314
aS'Libre'
p315
aS'Lions'
p316
aS'Bal.'
p317
aS'Libre'
p318
aS'Osci.'
p319
aS'Vari.'
p320
aS'Zeit.'
p321
aS'IFC'
p322
aS'IFC'
p323
aS'ICir'
p324
aS'Think'
p325
aS'Una.'
p326
aS'FRun'
p327
aS'SHB'
p328
aS'Zeit.'
p329
aS'OrC'
p330
aS'IDP'
p331
aS'Zeit.'
p332
aS'RAtt.'
p333
aS'Kino'
p334
aS'RTWC'
p335
aS'FSC'
p336
aS'CityL'
p337
aS'WB'
p338
aS'Reg.'
p339
aS'Cdgm.'
p340
aS'RedE'
p341
aS'Cn4'
p342
aS'Halo8'
p343
aS'Shad.'
p344
aS'IFC'
p345
aS'UA'
p346
aS'RTWC'
p347
aS'Arab'
p348
aS'RM'
p349
aS'Think'
p350
aS'RAtt.'
p351
aS'Drct.'
p352
aS'RM'
p353
aS'Mino.'
p354
aS'Arab'
p355
aS'DCo.'
p356
aS'IPos.'
p357
aS'Libre'
p358
aS'FTrd.'
p359
aS'Think'
p360
aS'Think'
p361
aS'L/Z'
p362
aS'Magn.'
p363
aS'Arab'
p364
aS'AtRsk'
p365
aS'Mitro.'
p366
aS'Free'
p367
aS'Magn.'
p368
aS'RTWC'
p369
aS'Shad.'
p370
aS'Wein.'
p371
aS'FRun'
p372
aS'Da.'
p373
aS'CityL'
p374
aS'Magn.'
p375
aS'FPR'
p376
aS'Magn.'
p377
aS'FRun'
p378
aS'Tar.'
p379
aS'Focus'
p380
aS'Free'
p381
aS'CalN'
p382
aS'Libre'
p383
aS'Lum.'
p384
aS'RTWC'
p385
aS'ParC'
p386
aS'FRun'
p387
aS'Libre'
p388
aS'LGF'
p389
aS'Koch'
p390
aS'SPC'
p391
aS'Oct.'
p392
aS'Magic'
p393
aS'Zeit.'
p394
aS'LGF'
p395
aS'Life'
p396
aS'FRun'
p397
aS'Over.'
p398
aS'SPC'
p399
aS'Libre'
p400
aS'Gold.'
p401
aS'ArcEnt'
p402
aS'RM'
p403
aS'309596'
p404
aS'453650'
p405
aS'4930'
p406
aS'93000'
p407
aS'254190'
p408
aS'11021'
p409
aS'2996'
p410
aS'2119'
p411
aS'720074'
p412
aS'1311'
p413
aS'2363'
p414
aS'287198'
p415
aS'20616'
p416
aS'30210'
p417
aS'189416'
p418
aS'1109146'
p419
aS'110577'
p420
aS'4198566'
p421
aS'821046'
p422
aS'90287'
p423
aS'176647'
p424
aS'21576018'
p425
aS'342941'
p426
aS'7720487'
p427
aS'292470'
p428
aS'1433319'
p429
aS'81432'
p430
aS'11156'
p431
aS'87400'
p432
aS'119194771'
p433
aS'102990'
p434
aS'21967'
p435
aS'142569'
p436
aS'153908'
p437
aS'33620'
p438
aS'384473'
p439
aS'534100'
p440
aS'43942'
p441
aS'274661'
p442
aS'313039'
p443
aS'1475'
p444
aS'20389'
p445
aS'26748'
p446
aS'45488'
p447
aS'40576'
p448
aS'53819'
p449
aS'126238'
p450
aS'9258'
p451
aS'11428'
p452
aS'71716'
p453
aS'18239'
p454
aS'6706368'
p455
aS'376612'
p456
aS'20584'
p457
aS'3103'
p458
aS'3588'
p459
aS'34000'
p460
aS'564632'
p461
aS'10337'
p462
aS'255364'
p463
aS'276497'
p464
aS'1479'
p465
aS'17304'
p466
aS'4364'
p467
aS'177490'
p468
aS'8350'
p469
aS'33449086'
p470
aS'4255'
p471
aS'1338'
p472
aS'7451'
p473
aS'60332'
p474
aS'238924'
p475
aS'215185'
p476
aS'25317'
p477
aS'614138'
p478
aS'13931'
p479
aS'2589616'
p480
aS'204462'
p481
aS'35397'
p482
aS'3384'
p483
aS'10935'
p484
aS'57999'
p485
aS'2475089'
p486
aS'194533'
p487
aS'384955'
p488
aS'312751'
p489
aS'122961'
p490
aS'4890'
p491
aS'176865'
p492
aS'2338'
p493
aS'52768'
p494
aS'3664'
p495
aS'177525'
p496
aS'20013'
p497
aS'433588'
p498
aS'68249'
p499
aS'20702'
p500
aS'1884'
p501
aS'1205273'
p502
aS'24146161'
p503
aS'516726'
p504
aS'461572'
p505
aS'24540079'
p506
aS'166750'
p507
aS'4312735'
p508
aS'901668'
p509
aS'74421'
p510
aS'3493516'
p511
aS'14444502'
p512
aS'14541'
p513
aS'121304'
p514
aS'14363397'
p515
aS'1439972'
p516
aS'1088'
p517
aS'153148'
p518
aS'116381'
p519
aS'45254'
p520
aS'11'
p521
aS'12'
p522
aS'1'
p523
aS'116'
p524
aS'9'
p525
aS'2'
p526
aS'1'
p527
aS'2'
p528
aS'53'
p529
aS'1'
p530
aS'3'
p531
aS'18'
p532
aS'2'
p533
aS'4'
p534
aS'17'
p535
aS'65'
p536
aS'15'
p537
aS'261'
p538
aS'358'
p539
aS'3'
p540
aS'11'
p541
aS'248'
p542
aS'16'
p543
aS'1052'
p544
aS'4'
p545
aS'117'
p546
aS'8'
p547
aS'1'
p548
aS'10'
p549
aS'2011'
p550
aS'10'
p551
aS'2'
p552
aS'11'
p553
aS'24'
p554
aS'4'
p555
aS'31'
p556
aS'37'
p557
aS'5'
p558
aS'20'
p559
aS'10'
p560
aS'1'
p561
aS'3'
p562
aS'5'
p563
aS'1'
p564
aS'8'
p565
aS'1'
p566
aS'12'
p567
aS'2'
p568
aS'5'
p569
aS'5'
p570
aS'1'
p571
aS'265'
p572
aS'20'
p573
aS'5'
p574
aS'2'
p575
aS'1'
p576
aS'1'
p577
aS'14'
p578
aS'4'
p579
aS'32'
p580
aS'80'
p581
aS'1'
p582
aS'12'
p583
aS'1'
p584
aS'14'
p585
aS'3'
p586
aS'2017'
p587
aS'1'
p588
aS'1'
p589
aS'1'
p590
aS'10'
p591
aS'22'
p592
aS'17'
p593
aS'9'
p594
aS'163'
p595
aS'4'
p596
aS'74'
p597
aS'12'
p598
aS'1'
p599
aS'1'
p600
aS'6'
p601
aS'12'
p602
aS'105'
p603
aS'16'
p604
aS'102'
p605
aS'15'
p606
aS'7'
p607
aS'2'
p608
aS'21'
p609
aS'1'
p610
aS'4'
p611
aS'2'
p612
aS'9'
p613
aS'8'
p614
aS'537'
p615
aS'4'
p616
aS'5'
p617
aS'1'
p618
aS'103'
p619
aS'587'
p620
aS'8'
p621
aS'18'
p622
aS'1117'
p623
aS'2'
p624
aS'250'
p625
aS'21'
p626
aS'21'
p627
aS'28'
p628
aS'1105'
p629
aS'2'
p630
aS'2'
p631
aS'995'
p632
aS'64'
p633
aS'3'
p634
aS'18'
p635
aS'14'
p636
aS'5'
p637
aS'6563'
p638
aS'1114'
p639
aS'1735'
p640
aS'93000'
p641
aS'12268'
p642
aS'2233'
p643
aS'2996'
p644
aS'2119'
p645
aS'146909'
p646
aS'245'
p647
aS'189'
p648
aS'32589'
p649
aS'7712'
p650
aS'4216'
p651
aS'16962'
p652
aS'69143'
p653
aS'46975'
p654
aS'41449'
p655
aS'61313'
p656
aS'2496'
p657
aS'9813'
p658
aS'209148'
p659
aS'35196'
p660
aS'2970848'
p661
aS'9442'
p662
aS'31533'
p663
aS'40673'
p664
aS'4088'
p665
aS'61200'
p666
aS'23920637'
p667
aS'10533'
p668
aS'8661'
p669
aS'3644'
p670
aS'10200'
p671
aS'3546'
p672
aS'63504'
p673
aS'41104'
p674
aS'4330'
p675
aS'10930'
p676
aS'21578'
p677
aS'1035'
p678
aS'6059'
p679
aS'2408'
p680
aS'11448'
p681
aS'24517'
p682
aS'8143'
p683
aS'30953'
p684
aS'2605'
p685
aS'2348'
p686
aS'3321'
p687
aS'10601'
p688
aS'80253'
p689
aS'23298'
p690
aS'6090'
p691
aS'2194'
p692
aS'2264'
p693
aS'34000'
p694
aS'13984'
p695
aS'2622'
p696
aS'24373'
p697
aS'64315'
p698
aS'789'
p699
aS'10802'
p700
aS'2201'
p701
aS'42724'
p702
aS'2944'
p703
aS'31610'
p704
aS'1653'
p705
aS'357'
p706
aS'3609'
p707
aS'10939'
p708
aS'31481'
p709
aS'41346'
p710
aS'2559'
p711
aS'279219'
p712
aS'1881'
p713
aS'27125'
p714
aS'24435'
p715
aS'6742'
p716
aS'3384'
p717
aS'6911'
p718
aS'30634'
p719
aS'126321'
p720
aS'1242'
p721
aS'148698'
p722
aS'7412'
p723
aS'17570'
p724
aS'2641'
p725
aS'28234'
p726
aS'2338'
p727
aS'40952'
p728
aS'658'
p729
aS'11927'
p730
aS'12207'
p731
aS'249428'
p732
aS'1848'
p733
aS'1966'
p734
aS'563'
p735
aS'140888'
p736
aS'281330'
p737
aS'14667'
p738
aS'77982'
p739
aS'68969'
p740
aS'7970'
p741
aS'39649'
p742
aS'15264'
p743
aS'49182'
p744
aS'28671'
p745
aS'38608'
p746
aS'4015'
p747
aS'19320'
p748
aS'231964'
p749
aS'53571'
p750
aS'1088'
p751
aS'33142'
p752
aS'65132'
p753
aS'30710'
p754
aS'7/31/92'
p755
aS'1/29/10'
p756
aS'1/28/05'
p757
aS'10/22/04'
p758
aS'6/2/06'
p759
aS'9/5/14'
p760
aS'5/20/05'
p761
aS'1/11/08'
p762
aS'4/10/98'
p763
aS'3/27/09'
p764
aS'6/13/14'
p765
aS'5/8/09'
p766
aS'10/19/07'
p767
aS'12/3/04'
p768
aS'11/5/10'
p769
aS'9/15/06'
p770
aS'10/1/04'
p771
aS'12/19/03'
p772
aS'8/22/08'
p773
aS'2/29/08'
p774
aS'1/31/07'
p775
aS'10/11/02'
p776
aS'2/1/13'
p777
aS'4/18/08'
p778
aS'11/22/02'
p779
aS'7/27/07'
p780
aS'10/19/12'
p781
aS'8/27/93'
p782
aS'7/28/06'
p783
aS'6/23/04'
p784
aS'9/13/06'
p785
aS'5/12/06'
p786
aS'3/21/08'
p787
aS'6/6/14'
p788
aS'8/4/06'
p789
aS'6/7/13'
p790
aS'7/27/12'
p791
aS'9/14/11'
p792
aS'1/18/08'
p793
aS'5/31/00'
p794
aS'6/15/07'
p795
aS'7/23/04'
p796
aS'8/14/09'
p797
aS'10/7/92'
p798
aS'10/1/04'
p799
aS'3/31/95'
p800
aS'10/5/12'
p801
aS'8/10/07'
p802
aS'10/29/14'
p803
aS'3/7/08'
p804
aS'8/25/06'
p805
aS'12/22/89'
p806
aS'6/18/04'
p807
aS'8/30/13'
p808
aS'3/23/07'
p809
aS'3/14/03'
p810
aS'7/20/07'
p811
aS'6/4/03'
p812
aS'10/4/06'
p813
aS'9/24/04'
p814
aS'4/4/14'
p815
aS'2/9/05'
p816
aS'12/8/06'
p817
aS'6/15/07'
p818
aS'2/29/08'
p819
aS'8/1/08'
p820
aS'7/13/12'
p821
aS'7/22/05'
p822
aS'7/13/05'
p823
aS'6/2/06'
p824
aS'9/26/08'
p825
aS'8/20/04'
p826
aS'10/10/08'
p827
aS'10/3/07'
p828
aS'10/1/04'
p829
aS'5/6/05'
p830
aS'5/21/04'
p831
aS'11/8/06'
p832
aS'7/27/06'
p833
aS'9/28/07'
p834
aS'9/30/11'
p835
aS'10/29/04'
p836
aS'10/24/14'
p837
aS'9/25/09'
p838
aS'4/18/08'
p839
aS'10/5/07'
p840
aS'6/3/11'
p841
aS'11/23/07'
p842
aS'5/7/10'
p843
aS'10/12/12'
p844
aS'9/21/12'
p845
aS'8/27/04'
p846
aS'8/20/04'
p847
aS'9/15/06'
p848
aS'10/15/10'
p849
aS'5/13/05'
p850
aS'4/8/05'
p851
aS'1/19/05'
p852
aS'9/27/13'
p853
aS'5/24/06'
p854
aS'9/25/02'
p855
aS'8/6/04'
p856
aS'6/22/07'
p857
aS'3/1/06'
p858
aS'10/8/10'
p859
aS'11/3/93'
p860
aS'1/25/08'
p861
aS'6/4/04'
p862
aS'6/27/14'
p863
aS'8/26/05'
p864
aS'10/18/02'
p865
aS'9/23/09'
p866
aS'1/20/06'
p867
aS'12/8/06'
p868
aS'3/13/09'
p869
aS'7/15/11'
p870
aS'7/18/14'
p871
atp872
bag13
(g14
(I0
tp873
g16
tp874
Rp875
(I1
(I1
I117
tp876
g20
(S'i8'
p877
I0
I1
tp878
Rp879
(I3
S'<'
p880
NNNI-1
I-1
I0
tp881
bI00
S'\x01\x00\x00\x00\x00\x00\x00\x00\x01\x00\x00\x00\x00\x00\x00\x00\x01\x00\x00\x00\x00\x00\x00\x00t\x00\x00\x00\x00\x00\x00\x00\x01\x00\x00\x00\x00\x00\x00\x00\x01\x00\x00\x00\x00\x00\x00\x00\x01\x00\x00\x00\x00\x00\x00\x00\x02\x00\x00\x00\x00\x00\x00\x00!\x00\x00\x00\x00\x00\x00\x00\x01\x00\x00\x00\x00\x00\x00\x00\x01\x00\x00\x00\x00\x00\x00\x00\x05\x00\x00\x00\x00\x00\x00\x00\x02\x00\x00\x00\x00\x00\x00\x00\x03\x00\x00\x00\x00\x00\x00\x00\x03\x00\x00\x00\x00\x00\x00\x00\x06\x00\x00\x00\x00\x00\x00\x00\x06\x00\x00\x00\x00\x00\x00\x00\x03\x00\x00\x00\x00\x00\x00\x00\x12\x00\x00\x00\x00\x00\x00\x00\x01\x00\x00\x00\x00\x00\x00\x00\x01\x00\x00\x00\x00\x00\x00\x00\x08\x00\x00\x00\x00\x00\x00\x00\x02\x00\x00\x00\x00\x00\x00\x00\x1c\x04\x00\x00\x00\x00\x00\x00\x01\x00\x00\x00\x00\x00\x00\x00\x02\x00\x00\x00\x00\x00\x00\x00\x04\x00\x00\x00\x00\x00\x00\x00\x01\x00\x00\x00\x00\x00\x00\x00\n\x00\x00\x00\x00\x00\x00\x00d\x03\x00\x00\x00\x00\x00\x00\x02\x00\x00\x00\x00\x00\x00\x00\x01\x00\x00\x00\x00\x00\x00\x00\x01\x00\x00\x00\x00\x00\x00\x00\x01\x00\x00\x00\x00\x00\x00\x00\x01\x00\x00\x00\x00\x00\x00\x00\x04\x00\x00\x00\x00\x00\x00\x00\x05\x00\x00\x00\x00\x00\x00\x00\x01\x00\x00\x00\x00\x00\x00\x00\x02\x00\x00\x00\x00\x00\x00\x00\x02\x00\x00\x00\x00\x00\x00\x00\x01\x00\x00\x00\x00\x00\x00\x00\x01\x00\x00\x00\x00\x00\x00\x00\x01\x00\x00\x00\x00\x00\x00\x00\x01\x00\x00\x00\x00\x00\x00\x00\x08\x00\x00\x00\x00\x00\x00\x00\x01\x00\x00\x00\x00\x00\x00\x00\x0c\x00\x00\x00\x00\x00\x00\x00\x01\x00\x00\x00\x00\x00\x00\x00\x03\x00\x00\x00\x00\x00\x00\x00\x01\x00\x00\x00\x00\x00\x00\x00\x01\x00\x00\x00\x00\x00\x00\x00\x04\x00\x00\x00\x00\x00\x00\x00\x02\x00\x00\x00\x00\x00\x00\x00\x03\x00\x00\x00\x00\x00\x00\x00\x02\x00\x00\x00\x00\x00\x00\x00\x01\x00\x00\x00\x00\x00\x00\x00\x01\x00\x00\x00\x00\x00\x00\x00\x01\x00\x00\x00\x00\x00\x00\x00\x04\x00\x00\x00\x00\x00\x00\x00\x03\x00\x00\x00\x00\x00\x00\x00\x12\x00\x00\x00\x00\x00\x00\x00\x01\x00\x00\x00\x00\x00\x00\x00\x0c\x00\x00\x00\x00\x00\x00\x00\x01\x00\x00\x00\x00\x00\x00\x00\x0e\x00\x00\x00\x00\x00\x00\x00\x01\x00\x00\x00\x00\x00\x00\x00\x01\x00\x00\x00\x00\x00\x00\x00\x01\x00\x00\x00\x00\x00\x00\x00\x01\x00\x00\x00\x00\x00\x00\x00\x01\x00\x00\x00\x00\x00\x00\x00\x02\x00\x00\x00\x00\x00\x00\x00\x07\x00\x00\x00\x00\x00\x00\x00\x0c\x00\x00\x00\x00\x00\x00\x00\x01\x00\x00\x00\x00\x00\x00\x00\xa3\x00\x00\x00\x00\x00\x00\x00\x02\x00\x00\x00\x00\x00\x00\x00\x01\x00\x00\x00\x00\x00\x00\x00\x07\x00\x00\x00\x00\x00\x00\x00\x01\x00\x00\x00\x00\x00\x00\x00\x01\x00\x00\x00\x00\x00\x00\x00\x06\x00\x00\x00\x00\x00\x00\x00\x0c\x00\x00\x00\x00\x00\x00\x00\x05\x00\x00\x00\x00\x00\x00\x00\x02\x00\x00\x00\x00\x00\x00\x00f\x00\x00\x00\x00\x00\x00\x00\x01\x00\x00\x00\x00\x00\x00\x00\x02\x00\x00\x00\x00\x00\x00\x00\x02\x00\x00\x00\x00\x00\x00\x00\t\x00\x00\x00\x00\x00\x00\x00\x01\x00\x00\x00\x00\x00\x00\x00\x04\x00\x00\x00\x00\x00\x00\x00\x01\x00\x00\x00\x00\x00\x00\x00\x04\x00\x00\x00\x00\x00\x00\x00\x08\x00\x00\x00\x00\x00\x00\x00\x19\x02\x00\x00\x00\x00\x00\x00\x01\x00\x00\x00\x00\x00\x00\x00\x02\x00\x00\x00\x00\x00\x00\x00\x01\x00\x00\x00\x00\x00\x00\x00\x1c\x00\x00\x00\x00\x00\x00\x00\x04\x00\x00\x00\x00\x00\x00\x00\x01\x00\x00\x00\x00\x00\x00\x00\x05\x00\x00\x00\x00\x00\x00\x00\x01\x00\x00\x00\x00\x00\x00\x00\x01\x00\x00\x00\x00\x00\x00\x00\x02\x00\x00\x00\x00\x00\x00\x00\x01\x00\x00\x00\x00\x00\x00\x00\x15\x00\x00\x00\x00\x00\x00\x00\x02\x00\x00\x00\x00\x00\x00\x00\x03\x00\x00\x00\x00\x00\x00\x00\x01\x00\x00\x00\x00\x00\x00\x00\x02\x00\x00\x00\x00\x00\x00\x00\x04\x00\x00\x00\x00\x00\x00\x00\x06\x00\x00\x00\x00\x00\x00\x00\x03\x00\x00\x00\x00\x00\x00\x00\x07\x00\x00\x00\x00\x00\x00\x00\n\x00\x00\x00\x00\x00\x00\x00\x01\x00\x00\x00\x00\x00\x00\x00'
p882
tp883
ba(lp884
g9
(g10
(dp885
g12
g13
(g14
(I0
tp886
g16
tp887
Rp888
(I1
(I6
tp889
g23
I00
(lp890
g27
ag28
ag29
ag30
ag31
ag33
atp891
bsg35
Nstp892
Rp893
ag9
(g10
(dp894
g12
g13
(g14
(I0
tp895
g16
tp896
Rp897
(I1
(I1
tp898
g23
I00
(lp899
g32
atp900
bsg35
Nstp901
Rp902
a(dp903
S'0.14.1'
p904
(dp905
S'axes'
p906
g8
sS'blocks'
p907
(lp908
(dp909
S'mgr_locs'
p910
g13
(g14
(I0
tp911
g16
tp912
Rp913
(I1
(I6
tp914
g879
I00
S'\x00\x00\x00\x00\x00\x00\x00\x00\x01\x00\x00\x00\x00\x00\x00\x00\x02\x00\x00\x00\x00\x00\x00\x00\x03\x00\x00\x00\x00\x00\x00\x00\x04\x00\x00\x00\x00\x00\x00\x00\x06\x00\x00\x00\x00\x00\x00\x00'
p915
tp916
bsS'values'
p917
g167
sa(dp918
g910
c__builtin__
slice
p919
(I5
I6
I1
tp920
Rp921
sg917
g875
sasstp922
bb.